(dp0
S'SE3'
p1
(dp2
I40
(F0.1111111111111111
cnumpy.core.multiarray
scalar
p3
(cnumpy
dtype
p4
(S'f8'
p5
I0
I1
tp6
Rp7
(I3
S'<'
p8
NNNI-1
I-1
I0
tp9
bS'\xd6\xcfK\xb4\xb1!\xe0?'
p10
tp11
Rp12
tp13
sI80
(F0.1111111111111111
g3
(g7
S'\x88\xfe\x15\xb6T\t\xe4?'
p14
tp15
Rp16
tp17
sI10
(F0.2222222222222222
g3
(g7
S'\xf1\xc4`\t\xe0\xdb\xc6?'
p18
tp19
Rp20
tp21
sI20
(F0.1111111111111111
g3
(g7
S'\xc02C\n\xe3\xa5\xd4?'
p22
tp23
Rp24
tp25
sI200
(F0.1111111111111111
g3
(g7
S'/\xdf$\x85#\xf7\xe5?'
p26
tp27
Rp28
tp29
ss.