(dp0
S'SE6'
p1
(dp2
I40
(F0.1111111111111111
cnumpy.core.multiarray
scalar
p3
(cnumpy
dtype
p4
(S'f8'
p5
I0
I1
tp6
Rp7
(I3
S'<'
p8
NNNI-1
I-1
I0
tp9
bS'\x88\xefQ\xab7\xba\xe9?'
p10
tp11
Rp12
tp13
sI80
(F0.1111111111111111
g3
(g7
S'\xa9\x99\xe2\xdd\xa0\xf4\xea?'
p14
tp15
Rp16
tp17
sI10
(F0.2222222222222222
g3
(g7
S'Zj\x8f\xb6\x1b\x90\xe0?'
p18
tp19
Rp20
tp21
sI20
(F0.2222222222222222
g3
(g7
S'\xc3\xf2&\xe5z\xdf\xdd?'
p22
tp23
Rp24
tp25
sI200
(F0.1111111111111111
g3
(g7
S'\xde\xc8tqp\xdf\xe8?'
p26
tp27
Rp28
tp29
ss.