(dp0
S'rpg'
p1
(dp2
I40
(F0.1111111111111111
cnumpy.core.multiarray
scalar
p3
(cnumpy
dtype
p4
(S'f8'
p5
I0
I1
tp6
Rp7
(I3
S'<'
p8
NNNI-1
I-1
I0
tp9
bS'\xf5\xc0wb|k\xcb?'
p10
tp11
Rp12
tp13
sI80
(F0.1111111111111111
g3
(g7
S'>\x079e\x13\xa3\xce?'
p14
tp15
Rp16
tp17
sI10
(F0.1111111111111111
g3
(g7
S'70_{\xbfN\xde?'
p18
tp19
Rp20
tp21
sI20
(F0.1111111111111111
g3
(g7
S'\x15\x97\x0c\xc1:\xda\xcc?'
p22
tp23
Rp24
tp25
sI200
(F0.1111111111111111
g3
(g7
S'\xb4j=\xcc\xc7\xb1\xcd?'
p26
tp27
Rp28
tp29
ss.