(dp0
S'SE0'
p1
(dp2
I40
(F0.1111111111111111
cnumpy.core.multiarray
scalar
p3
(cnumpy
dtype
p4
(S'f8'
p5
I0
I1
tp6
Rp7
(I3
S'<'
p8
NNNI-1
I-1
I0
tp9
bS'\xdc+j:C\xb8\xed?'
p10
tp11
Rp12
tp13
sI80
(F0.2222222222222222
g3
(g7
S'\xca\x10\xac\xa3\xcd\xfb\xec?'
p14
tp15
Rp16
tp17
sI10
(F0.2222222222222222
g3
(g7
S'\x0c\xc5\xfcSx\xc7\xed?'
p18
tp19
Rp20
tp21
sI20
(F0.3333333333333333
g3
(g7
S'\x85^\xe8\x85^\xe8\xed?'
p22
tp23
Rp24
tp25
sI200
(F0.2222222222222222
g3
(g7
S'P\xaa\x0b\x7f\x9fp\xeb?'
p26
tp27
Rp28
tp29
ss.