(dp0
S'SE8'
p1
(dp2
I40
(F0.2222222222222222
cnumpy.core.multiarray
scalar
p3
(cnumpy
dtype
p4
(S'f8'
p5
I0
I1
tp6
Rp7
(I3
S'<'
p8
NNNI-1
I-1
I0
tp9
bS'Ye\xdb_\xc3\x96\xd3?'
p10
tp11
Rp12
tp13
sI80
(F0.2222222222222222
g3
(g7
S'\x1e\x89\xfe\xd86\xcc\xd6?'
p14
tp15
Rp16
tp17
sI10
(F0.3333333333333333
g3
(g7
S'V\xfbs\x97\xbfs\xc0?'
p18
tp19
Rp20
tp21
sI20
(F0.2222222222222222
g3
(g7
S'}\xadL1t\r\xd1?'
p22
tp23
Rp24
tp25
sI200
(F0.1111111111111111
g3
(g7
S'_\x11\x02\xb1\xfc\x17\xe2?'
p26
tp27
Rp28
tp29
ss.