(dp0
S'diy'
p1
(dp2
I40
(F0.1111111111111111
cnumpy.core.multiarray
scalar
p3
(cnumpy
dtype
p4
(S'f8'
p5
I0
I1
tp6
Rp7
(I3
S'<'
p8
NNNI-1
I-1
I0
tp9
bS'\xa1O\x9b\x04\xe5T\xe3?'
p10
tp11
Rp12
tp13
sI80
(F0.1111111111111111
g3
(g7
S'\xc7\xda\xfe}\xdcA\xe3?'
p14
tp15
Rp16
tp17
sI10
(F0.2222222222222222
g3
(g7
S'\xcc\x9d\x84\x02\x8d\xd8\xde?'
p18
tp19
Rp20
tp21
sI20
(F0.1111111111111111
g3
(g7
S'Sv*\xee\xc4A\xdf?'
p22
tp23
Rp24
tp25
sI200
(F0.1111111111111111
g3
(g7
S'\x155EMQS\xe4?'
p26
tp27
Rp28
tp29
ss.