(dp0
S'scifi'
p1
(dp2
I40
(F0.2222222222222222
cnumpy.core.multiarray
scalar
p3
(cnumpy
dtype
p4
(S'f8'
p5
I0
I1
tp6
Rp7
(I3
S'<'
p8
NNNI-1
I-1
I0
tp9
bS'c\xe8\xe7=8\x87\xe9?'
p10
tp11
Rp12
tp13
sI80
(F0.1111111111111111
g3
(g7
S'\x11m=\xe0\xc1\xeb\xeb?'
p14
tp15
Rp16
tp17
sI10
(F0.4444444444444444
g3
(g7
S'\xb4\xb2\xc3\xa9]\x10\xe4?'
p18
tp19
Rp20
tp21
sI20
(F0.3333333333333333
g3
(g7
S'o\xbc\x97\xf9I\x1e\xe8?'
p22
tp23
Rp24
tp25
sI200
(F0.1111111111111111
g3
(g7
S'~(\xd6D\x9f\x8e\xeb?'
p26
tp27
Rp28
tp29
ss.