(dp0
S'photo'
p1
(dp2
I40
(F0.2222222222222222
cnumpy.core.multiarray
scalar
p3
(cnumpy
dtype
p4
(S'f8'
p5
I0
I1
tp6
Rp7
(I3
S'<'
p8
NNNI-1
I-1
I0
tp9
bS'\x91k4GE\xfd\xd9?'
p10
tp11
Rp12
tp13
sI80
(F0.1111111111111111
g3
(g7
S'\xab\xaa\xaa\xaa\xaa\xaa\xda?'
p14
tp15
Rp16
tp17
sI10
(F0.2222222222222222
g3
(g7
S'\xe0\x94\xdeR\xec\x86\xe0?'
p18
tp19
Rp20
tp21
sI20
(F0.1111111111111111
g3
(g7
S'\x9f\xaa\xed\x90\xad\xa7\xe3?'
p22
tp23
Rp24
tp25
sI200
(F0.2222222222222222
g3
(g7
S'l\xcae\x8b\xdd\xa7\xda?'
p26
tp27
Rp28
tp29
ss.