(lp0
(dp1
S'SE8'
p2
(dp3
I7
cnumpy.core.multiarray
scalar
p4
(cnumpy
dtype
p5
(S'f8'
p6
I0
I1
tp7
Rp8
(I3
S'<'
p9
NNNI-1
I-1
I0
tp10
bS'\xd0pR\xf7\xe5\xb1\xc5?'
p11
tp12
Rp13
ssa(dp14
g2
(dp15
I7
(lp16
ccopy_reg
_reconstructor
p17
(c__main__
Individual
p18
c__builtin__
tuple
p19
((lp20
I22
aF0.8626903632435095
aF0.7873971570789526
ag4
(g8
S's{*3\x19(\xb7?'
p21
tp22
Rp23
tp24
tp25
Rp26
ag17
(g18
g19
((lp27
I33
aF0.5458915783827468
aF0.5045419583098644
ag4
(g8
S'K\xd1oo\xd2F\xc2?'
p28
tp29
Rp30
tp31
tp32
Rp33
ag17
(g18
g19
((lp34
I69
aF0.8098510160219619
aF0.1844736280968114
ag4
(g8
S'ZH\xa1\x07o\xc2\xc1?'
p35
tp36
Rp37
tp38
tp39
Rp40
ag17
(g18
g19
((lp41
I12
aF0.8521885935278827
aF0.489490361114548
ag4
(g8
S'\xb6%@\xc6m\xe8\xb7?'
p42
tp43
Rp44
tp45
tp46
Rp47
ag17
(g18
g19
((lp48
I79
aF0.10189544801599963
aF0.5008484746493213
ag4
(g8
S'\x15\x8fw\x90\xee\x8a\xc2?'
p49
tp50
Rp51
tp52
tp53
Rp54
ag17
(g18
g19
((lp55
I75
aF0.3058859991434074
aF0.95074362599853
ag4
(g8
S'\xe4\xb9\xe3L\xf7\x03\xc1?'
p56
tp57
Rp58
tp59
tp60
Rp61
ag17
(g18
g19
((lp62
F76.4
aF0.2892940836940252
aF0.20821113866517876
ag4
(g8
S'{"\xd2\xde\xc1$\xc5?'
p63
tp64
Rp65
tp66
tp67
Rp68
ag17
(g18
g19
((lp69
I59
aF0.9452342465006595
aF0.4430838139193912
ag13
tp70
tp71
Rp72
ag17
(g18
g19
((lp73
I29
aF0.47990491802444557
aF0.12613670881738115
ag4
(g8
S'[Qb\x84kD\xc4?'
p74
tp75
Rp76
tp77
tp78
Rp79
ag17
(g18
g19
((lp80
I30
aF0.4940988342855148
aF0.5462310172436656
ag4
(g8
S'\x8au\xe7\x80\x93\xdb\xc2?'
p81
tp82
Rp83
tp84
tp85
Rp86
assa(dp87
g2
(dp88
I7
(dp89
g4
(g8
S'\xa0g\xba\xe0\xa1P\xc3?'
p90
tp91
Rp92
(lp93
(lp94
F76.9
aF0.1
aF0.5541816967180069
aasg4
(g8
S'\xe4*\xe7\x00\xf2X\xbd?'
p95
tp96
Rp97
(lp98
g34
asg4
(g8
S'\xe9\xaa\xec\xc2\x0f\x80\xc0?'
p99
tp100
Rp101
(lp102
g69
asg4
(g8
S'\x16\xa8\xa1\xd0\xf6\xf9\xc1?'
p103
tp104
Rp105
(lp106
g69
asg76
(lp107
g73
asg4
(g8
S"\xa8!\xea\xc0'\xf3\xb5?"
p108
tp109
Rp110
(lp111
(lp112
F25.1
aF0.7620486459388596
aI1
aasg4
(g8
S'U}\x12\xe5\x96\xc0\xc0?'
p113
tp114
Rp115
(lp116
g55
asg4
(g8
S'sW)&\xe8\xae\xc2?'
p117
tp118
Rp119
(lp120
g62
asg44
(lp121
g41
asg37
(lp122
g34
asg4
(g8
S'\x95\x03#\xc8\xdd\xcd\xb5?'
p123
tp124
Rp125
(lp126
g80
asg4
(g8
S'\xac\xcf\x05\x89@\xc9\xb6?'
p127
tp128
Rp129
(lp130
g41
asg4
(g8
S'C.T*\xff\x0c\xc1?'
p131
tp132
Rp133
(lp134
g27
asg4
(g8
S'\xc2R\x15\x0b4\x90\xbf?'
p135
tp136
Rp137
(lp138
(lp139
F74.6
aF0.5518369457513657
aF0.1
aasg58
(lp140
g55
asg4
(g8
S'\xc8V\x99\x97\xdf\\\xbd?'
p141
tp142
Rp143
(lp144
(lp145
F78.08
aF0.15186542149904664
aF0.3076465025953059
aasg4
(g8
S'5@\x8f\xcd\xac\x90\xc1?'
p146
tp147
Rp148
(lp149
g73
asg4
(g8
S']\xb3\xc7\x8dN\x13\xb5?'
p150
tp151
Rp152
(lp153
g41
asg4
(g8
S'\xc3\xdc\xf2NyT\xc0?'
p154
tp155
Rp156
(lp157
g48
asg30
(lp158
g27
asg4
(g8
S';\xda\xbcOq\xc9\xc0?'
p159
tp160
Rp161
(lp162
g27
asg51
(lp163
g48
asg4
(g8
S'\xa6\xf9\x88\xf0\xc7T\xb3?'
p164
tp165
Rp166
(lp167
g20
asg4
(g8
S'\xdc$\x18Qh\xb2\xb8?'
p168
tp169
Rp170
(lp171
g73
asg4
(g8
S'\xa4\xb9c\x921\x0b\xb3?'
p172
tp173
Rp174
(lp175
g20
asg23
(lp176
g20
asg4
(g8
S'\x8f\xd7\xed\xb3\x94\x9b\xc1?'
p177
tp178
Rp179
(lp180
(lp181
I92
aF0.1275309847301982
aF0.12290127489411473
aasg4
(g8
S'\x01sT\xf4e\xdb\xbc?'
p182
tp183
Rp184
(lp185
g27
asg4
(g8
S'\xe4\x8d\xa2tL\x89\xbe?'
p186
tp187
Rp188
(lp189
g69
asg4
(g8
S'\n\xab[\x16|=\xb5?'
p190
tp191
Rp192
(lp193
g80
asg4
(g8
S'T\x8a\xd6v\xa1\xa2\xaa?'
p194
tp195
Rp196
(lp197
g41
asg13
(lp198
g69
asg4
(g8
S'4M\x89\x97\xbc\x08\xb4?'
p199
tp200
Rp201
(lp202
g20
asg4
(g8
S'\xcf\x1a\xc5\xb7\xd7U\xc2?'
p203
tp204
Rp205
(lp206
g48
asg4
(g8
S'\xac.\xc3^\xe9\xcf\xb9?'
p207
tp208
Rp209
(lp210
(lp211
F12.0
aF0.2201610484493971
aF0.2826789847384573
aasg4
(g8
S'\x91\x14\x08:r\x91\xb4?'
p212
tp213
Rp214
(lp215
g80
asg83
(lp216
g80
asg4
(g8
S'C\xfe\x8b\xdd\x8c\x17\xbe?'
p217
tp218
Rp219
(lp220
g34
asg4
(g8
S'\x082tJ\x06\xb9\xb4?'
p221
tp222
Rp223
(lp224
(lp225
I10
aF0.985616177559177
aF0.4320382602210897
aasg65
(lp226
g62
asssa(dp227
g2
F98499.34715795517
sa(dp228
g2
(lp229
g4
(g8
S'\x02t=\xefx\xb0\xc5?'
p230
tp231
Rp232
ag4
(g8
S'\xc8\x12\xe5\xf0N\x13\xc1?'
p233
tp234
Rp235
ag4
(g8
S'\x811\x89\x83\xf7\xad\xd1?'
p236
tp237
Rp238
ag4
(g8
S'Y\x00\xee\x1eG1\xc6?'
p239
tp240
Rp241
ag4
(g8
S'\x1a\xbf\x0f\x1e"A\xcf?'
p242
tp243
Rp244
ag4
(g8
S'\xe7\x0b\xfa\x82\xbe\xa0\xc7?'
p245
tp246
Rp247
ag4
(g8
S'\x12\x17q\x11\x17q\xd1?'
p248
tp249
Rp250
ag4
(g8
S'R+\xb5R+\xb5\xd2?'
p251
tp252
Rp253
ag4
(g8
S'/H\xf1\x89\xe5\x82\xc4?'
p254
tp255
Rp256
ag4
(g8
S'\xe9<\xfa\xb0\x9f\xb2\xd1?'
p257
tp258
Rp259
ag4
(g8
S'2L\x97\xe4\xc5\xad\xd1?'
p260
tp261
Rp262
ag4
(g8
S'\xaeE\xa1>\xd0Z\xc4?'
p263
tp264
Rp265
ag4
(g8
S'\x88\x04\x90\xdc\xda$\xd2?'
p266
tp267
Rp268
ag4
(g8
S'\xad\x99\x07\x8b\xaaH\xc8?'
p269
tp270
Rp271
ag4
(g8
S'\x0f\xdbq\x9f\xfa\xb0\xcd?'
p272
tp273
Rp274
ag4
(g8
S'x\x10\n\xbft\x0e\xc7?'
p275
tp276
Rp277
ag4
(g8
S'\xee\x13\xd5\x83F\xde\xb9?'
p278
tp279
Rp280
ag4
(g8
S'f\xf7\xb6\x99\xd4x\xc8?'
p281
tp282
Rp283
ag4
(g8
S'\x00\x99n\xde\x8d\x15\xc6?'
p284
tp285
Rp286
ag4
(g8
S'\x97\x96\x96\x96\x96\x96\xce?'
p287
tp288
Rp289
ag4
(g8
S'\xee#\xb8\x8f\xe0>\xc2?'
p290
tp291
Rp292
ag4
(g8
S';\xc5G\x8dN\xf1\xd1?'
p293
tp294
Rp295
ag4
(g8
S'\x9e\xba\x96\x83\x9b\xfd\xc2?'
p296
tp297
Rp298
ag4
(g8
S'\xf83\xe1\xcf\x84?\xc3?'
p299
tp300
Rp301
ag4
(g8
S'j\x08\xeb\xd0\x80r\xc0?'
p302
tp303
Rp304
asa.