(lp0
(dp1
S'photo'
p2
(dp3
I7
cnumpy.core.multiarray
scalar
p4
(cnumpy
dtype
p5
(S'f8'
p6
I0
I1
tp7
Rp8
(I3
S'<'
p9
NNNI-1
I-1
I0
tp10
bS'_\x92\xc5\xf8+_\xd2?'
p11
tp12
Rp13
ssa(dp14
g2
(dp15
I7
(dp16
g4
(g8
S'\xf4E\x05@\x1d?\xc6?'
p17
tp18
Rp19
(lp20
(lp21
I56
aF0.8626903632435095
aF0.7873971570789526
aasg4
(g8
S'\xa1\xa0\xa0\xa0\xa0\xa0\xd0?'
p22
tp23
Rp24
(lp25
(lp26
I95
aF0.1275309847301982
aF0.12290127489411473
aasg4
(g8
S'\x8cm\x18\x016\xb3\xcc?'
p27
tp28
Rp29
(lp30
(lp31
I50
aF0.5095412222785901
aF0.3396484219297968
aasg4
(g8
S"'\x83\xa5\xe1\nS\xd1?"
p32
tp33
Rp34
(lp35
(lp36
I83
aF0.8098510160219619
aF0.1844736280968114
aasg4
(g8
S'U~3\x82\xd0\x9b\xd0?'
p37
tp38
Rp39
(lp40
(lp41
I61
aF0.47990491802444557
aF0.12613670881738115
aasg4
(g8
S'\xd2`pB\xd6!\xce?'
p42
tp43
Rp44
(lp45
g26
asg4
(g8
S'\t\xf0\x8c\x00\xcf\x08\xd0?'
p46
tp47
Rp48
(lp49
g36
asg4
(g8
S'(\x9a/d\x0e<\xc3?'
p50
tp51
Rp52
(lp53
(lp54
I86
aF0.3058859991434074
aF0.95074362599853
aasg4
(g8
S'\xb7\x16\x10\xf6X\x14\xc9?'
p55
tp56
Rp57
(lp58
(lp59
I63
aF0.5458915783827468
aF0.5045419583098644
aasg4
(g8
S'\xac\xe2\x90\xa4\xb5\x84\xc5?'
p60
tp61
Rp62
(lp63
(lp64
I77
aF0.9452342465006595
aF0.4430838139193912
aasg4
(g8
S'\xdd\xc4)$O\xb0\xcc?'
p65
tp66
Rp67
(lp68
(lp69
F83.1
aF0.6244266959455715
aF0.1
aasg4
(g8
S'\xb6\x1f\x84&\xcb#\xc5?'
p70
tp71
Rp72
(lp73
g21
asg4
(g8
S'\x12;\xee(b\xc7\xcd?'
p74
tp75
Rp76
(lp77
(lp78
I51
aF0.8521885935278827
aF0.489490361114548
aasg4
(g8
S'\x07F\xac\xe9\xd7}\xd0?'
p79
tp80
Rp81
(lp82
(lp83
I100
aF0.1
aF0.23369999625829652
aasg4
(g8
S'\x145pj\xc2\x04\xd1?'
p84
tp85
Rp86
(lp87
g41
asg4
(g8
S'Whs+\xff\x1e\xd0?'
p88
tp89
Rp90
(lp91
g26
asg4
(g8
S'a\x13\x1f\x8c\t\x86\xc8?'
p92
tp93
Rp94
(lp95
(lp96
I50
aI1
aF0.4320352886235555
aasg4
(g8
S'W\x02IL\x7fP\xcc?'
p97
tp98
Rp99
(lp100
g83
asg4
(g8
S'\x0f\xbe;vc\\\xbe?'
p101
tp102
Rp103
(lp104
(lp105
I100
aF0.5628224304315268
aF0.7659610993381786
aasg4
(g8
S'\x00\xcf\xd3.f\x9f\xc4?'
p106
tp107
Rp108
(lp109
g78
asg4
(g8
S'\x99\xba\x01\xc2e\x08\xcc?'
p110
tp111
Rp112
(lp113
g78
asg4
(g8
S'\x17]t\xd1E\x17\xc8?'
p114
tp115
Rp116
(lp117
(lp118
F56.7
aF0.4058117543171761
aF0.8937547090157559
aasg4
(g8
S'\xab\xf0Tx*<\xc5?'
p119
tp120
Rp121
(lp122
g54
asg4
(g8
S'\xb2l|3\xb4v\xcf?'
p123
tp124
Rp125
(lp126
(lp127
I100
aF0.1529762340031079
aF0.23832675036016204
aasg4
(g8
S'c\xae\xf1\x13\xdbN\xcb?'
p128
tp129
Rp130
(lp131
g31
asg4
(g8
S'?m\xdf\x94\x0e\x84\xcd?'
p132
tp133
Rp134
(lp135
g31
asg4
(g8
S'\x95Z\xa9\x95Z\xa9\xc5?'
p136
tp137
Rp138
(lp139
(lp140
I88
aF0.10189544801599963
aF0.5008484746493213
aasg4
(g8
S'\xc0a\xd6\xf5\xc4\xd9\xce?'
p141
tp142
Rp143
(lp144
(lp145
F79.14
aF0.1
aF0.1
aasg4
(g8
S'\xe0\x0b%6\x8ag\xc2?'
p146
tp147
Rp148
(lp149
g64
asg4
(g8
S"\xdd\x93\x05\xd7'\x92\xcc?"
p150
tp151
Rp152
(lp153
(lp154
F94.5
aF0.2784844120988725
aF0.35281895538488695
aasg4
(g8
S'\xda\x10x7\xeb\xeb\xd0?'
p155
tp156
Rp157
(lp158
g36
asg4
(g8
S'd`\xb5\xf77\x06\xc6?'
p159
tp160
Rp161
(lp162
g54
asg4
(g8
S'\xd8B\xdf\x97\x86\xc8\xcd?'
p163
tp164
Rp165
(lp166
g59
asg4
(g8
S'\x15\xf5\x1a\xc4\xfed\xc8?'
p167
tp168
Rp169
(lp170
g59
asg13
(lp171
g36
asg4
(g8
S'\xb4z~z\xf0\xf3\xca?'
p172
tp173
Rp174
(lp175
(lp176
I61
aF0.4940988342855148
aF0.5462310172436656
aasg4
(g8
S'\x05\xb3\xa4\x1c\x10\x19\xce?'
p177
tp178
Rp179
(lp180
(lp181
I100
aF0.1
aF0.1573597326071543
aasg4
(g8
S'\t@\x04\xfe\x11o\xd0?'
p182
tp183
Rp184
(lp185
g41
asg4
(g8
S'\xda7\xe7\xbe\xaa\xa0\xcb?'
p186
tp187
Rp188
(lp189
(lp190
F79.8
aF0.6160286099375363
aF0.7851323533326662
aasg4
(g8
S'\xc7F\x16D\xb5\x9f\xc7?'
p191
tp192
Rp193
(lp194
g59
asssa(dp195
g2
F21152.54710006714
sa(dp196
g2
(lp197
g4
(g8
S'\xc7x\xb7\xeb\xc1I\xc0?'
p198
tp199
Rp200
ag4
(g8
S'\xcf\x8e\xe1\xf0\x814\xc3?'
p201
tp202
Rp203
ag4
(g8
S'\x07\x9f\xaa\xa9\x94\xc6\xc0?'
p204
tp205
Rp206
ag4
(g8
S'\xa1j\xcc\xc5\x86\xf7\xba?'
p207
tp208
Rp209
ag4
(g8
S'\x0c\x07\xd1\xe3\xbbp\xc0?'
p210
tp211
Rp212
ag4
(g8
S'\x9f9\r\xee\xbcH\xbd?'
p213
tp214
Rp215
ag4
(g8
S'\x0b\x9d\x04\x8cYw\xb9?'
p216
tp217
Rp218
ag4
(g8
S'\xb4\xb6\x94\xb4\xb6\x94\xc4?'
p219
tp220
Rp221
ag4
(g8
S'\x9dr\xe0\x8c~\xe2\xc0?'
p222
tp223
Rp224
ag4
(g8
S')\xedF@J\xbb\xc1?'
p225
tp226
Rp227
ag4
(g8
S'\xb3\xed\x16S\xb5"\xbb?'
p228
tp229
Rp230
ag4
(g8
S'\xd3\xbf\xf7s\xbe\xb5\xc3?'
p231
tp232
Rp233
ag4
(g8
S'gffff\xe6\xc2?'
p234
tp235
Rp236
ag4
(g8
S'\xd6\xa0\x7fU/y\xbf?'
p237
tp238
Rp239
ag4
(g8
S'M\xf7\xf5:x\x12\xc0?'
p240
tp241
Rp242
ag4
(g8
S'9\xb9@2E\xdd\xc3?'
p243
tp244
Rp245
ag4
(g8
S'\xad\x85\xf5\x19\x93A\xbe?'
p246
tp247
Rp248
ag4
(g8
S'G\xe1z\x14\xaeG\xc1?'
p249
tp250
Rp251
ag4
(g8
S'\x82h M\xd7E\xbe?'
p252
tp253
Rp254
ag4
(g8
S'\xa4\xac\xce{\x93C\xc1?'
p255
tp256
Rp257
ag4
(g8
S'\xbd\x11^\xd0m\xa2\xc2?'
p258
tp259
Rp260
ag4
(g8
S'\xd5\x144\x82\xc5m\xc2?'
p261
tp262
Rp263
ag4
(g8
S'\x82{\xd3\x15"\'\xba?'
p264
tp265
Rp266
ag4
(g8
S'\xb3\x9d\xe3\xbeA\xbd\xbf?'
p267
tp268
Rp269
ag4
(g8
S'X\x1d\n%\xcc{\xbf?'
p270
tp271
Rp272
asa.