(lp0
(dp1
S'SE6'
p2
(dp3
I7
cnumpy.core.multiarray
scalar
p4
(cnumpy
dtype
p5
(S'f8'
p6
I0
I1
tp7
Rp8
(I3
S'<'
p9
NNNI-1
I-1
I0
tp10
bS';\x19\x9d\xd5\xede\xe9?'
p11
tp12
Rp13
ssa(dp14
g2
(dp15
I7
(lp16
ccopy_reg
_reconstructor
p17
(c__main__
Individual
p18
c__builtin__
tuple
p19
((lp20
I22
aF0.8626903632435095
aF0.7873971570789526
ag4
(g8
S'\xe7\xb5\xf6J\x857\xdf?'
p21
tp22
Rp23
tp24
tp25
Rp26
ag17
(g18
g19
((lp27
F99.07
aF0.1
aF0.1513740482956723
ag4
(g8
S'(\xac\xd3\xd8\xa1A\xe9?'
p28
tp29
Rp30
tp31
tp32
Rp33
ag17
(g18
g19
((lp34
I69
aF0.8098510160219619
aF0.1844736280968114
ag4
(g8
S'Z\xbfR\xa0\xd6\xaf\xe4?'
p35
tp36
Rp37
tp38
tp39
Rp40
ag17
(g18
g19
((lp41
I12
aF0.8521885935278827
aF0.489490361114548
ag4
(g8
S'L\xaaP\xf0;m\xd5?'
p42
tp43
Rp44
tp45
tp46
Rp47
ag17
(g18
g19
((lp48
I79
aF0.10189544801599963
aF0.5008484746493213
ag4
(g8
S'Z~\xeb4\x90b\xe9?'
p49
tp50
Rp51
tp52
tp53
Rp54
ag17
(g18
g19
((lp55
F58.4
aF0.311901012556908
aF0.43847787619944706
ag4
(g8
S'\x96+W\xae\\\xb9\xe2?'
p56
tp57
Rp58
tp59
tp60
Rp61
ag17
(g18
g19
((lp62
I92
aF0.1275309847301982
aF0.12290127489411473
ag13
tp63
tp64
Rp65
ag17
(g18
g19
((lp66
I59
aF0.9452342465006595
aF0.4430838139193912
ag4
(g8
S'\x1dD\x8f\xef\xc2A\xe4?'
p67
tp68
Rp69
tp70
tp71
Rp72
ag17
(g18
g19
((lp73
F80.1
aF0.38812955758260415
aF0.3772488315021315
ag4
(g8
S'\x0c5\xba\x91\x9e\xa8\xe4?'
p74
tp75
Rp76
tp77
tp78
Rp79
ag17
(g18
g19
((lp80
F82.94899999999998
aF0.33615834777399156
aF0.5507157381057397
ag4
(g8
S'[\xd0\x84\xfe\x9d\x80\xe3?'
p81
tp82
Rp83
tp84
tp85
Rp86
assa(dp87
g2
(dp88
I7
(dp89
g37
(lp90
g34
asg4
(g8
S'\xc9g\xdd`\x8a|\xe0?'
p91
tp92
Rp93
(lp94
(lp95
I29
aF0.47990491802444557
aF0.12613670881738115
aasg4
(g8
S'!\x84\x10B\x08!\xe4?'
p96
tp97
Rp98
(lp99
g66
asg4
(g8
S'\xc4\x88\x11#F\x8c\xe8?'
p100
tp101
Rp102
(lp103
g48
asg4
(g8
S'\xc6\xba\xc3\x98\x00\xdb\xd5?'
p104
tp105
Rp106
(lp107
g20
asg4
(g8
S'\xd0\x911\x85Q\xfc\xd3?'
p108
tp109
Rp110
(lp111
g41
asg4
(g8
S'\xe3\xeca\xa5-"\xd0?'
p112
tp113
Rp114
(lp115
g34
asg4
(g8
S'\xf5\x89r\xc7\x04\x0e\xd8?'
p116
tp117
Rp118
(lp119
(lp120
F20.9
aF0.47615395858557585
aF0.8107940570723102
aasg4
(g8
S'\xdan\xfcH>\x19\xe4?'
p121
tp122
Rp123
(lp124
g73
asg4
(g8
S'\x90\xd6\x02i-\x90\xe6?'
p125
tp126
Rp127
(lp128
g48
asg76
(lp129
g73
asg23
(lp130
g20
asg4
(g8
S'4\xf9\x08\xa2P\xb7\xc2?'
p131
tp132
Rp133
(lp134
g41
asg58
(lp135
g55
asg4
(g8
S'a\x12\x07\xef[#\xdb?'
p136
tp137
Rp138
(lp139
g20
asg69
(lp140
g66
asg4
(g8
S'N\\\xe6\xf8\x01c\xdd?'
p141
tp142
Rp143
(lp144
g20
asg44
(lp145
g41
asg4
(g8
S'+\x99\xed\xf1\xa96\xe3?'
p146
tp147
Rp148
(lp149
(lp150
F45.519999999999996
aF0.7336313437648125
aF0.56649353616522
aasg4
(g8
S'r\x1c\xc7q\x1c\xc7\xe1?'
p151
tp152
Rp153
(lp154
(lp155
I30
aF0.4940988342855148
aF0.5462310172436656
aasg4
(g8
S'WRXRXR\xe8?'
p156
tp157
Rp158
(lp159
g27
asg4
(g8
S'\x11\xb1x\xf3\xc5.\xe0?'
p160
tp161
Rp162
(lp163
(lp164
F26.800000000000004
aI1
aF0.4456692524817714
aasg51
(lp165
g48
asg4
(g8
S'r\xff%U\xb7q\xe2?'
p166
tp167
Rp168
(lp169
g66
asg13
(lp170
g62
asg30
(lp171
g27
asg4
(g8
S'm\xbc`\xb7R\xc9\xe2?'
p172
tp173
Rp174
(lp175
g34
asg4
(g8
S',z\xf2\x98X\x9a\xe1?'
p176
tp177
Rp178
(lp179
(lp180
I75
aF0.3058859991434074
aF0.95074362599853
aasg4
(g8
S'YYYYYY\xe9?'
p181
tp182
Rp183
(lp184
g62
asg4
(g8
S'\xe5<\xc7\xd9\x03\xf7\xd4?'
p185
tp186
Rp187
(lp188
g41
asg4
(g8
S'\xa2\x95-Z\xd9\xa2\xe5?'
p189
tp190
Rp191
(lp192
(lp193
F66.9
aF0.7735960951538995
aF0.21365596935047226
aasg4
(g8
S'\n\xc4\x85\x9a\x93@\xdc?'
p194
tp195
Rp196
(lp197
g55
asg4
(g8
S'\x00\x99\x85\xfbi\xde\xda?'
p198
tp199
Rp200
(lp201
g55
asg4
(g8
S'\xe1\xe5\x14\xbc\x9c\x82\xd7?'
p202
tp203
Rp204
(lp205
(lp206
I33
aF0.5458915783827468
aF0.5045419583098644
aasg4
(g8
S'%s\xa5\xfc\xc66\xe3?'
p207
tp208
Rp209
(lp210
(lp211
F57.0
aF0.960521840821927
aF0.601376608819825
aasg4
(g8
S'N\x90T\xbd\x10\xea\xe3?'
p212
tp213
Rp214
(lp215
g66
asg83
(lp216
g80
asg4
(g8
S'\xfd}j\x1f\xe9\x15\xd8?'
p217
tp218
Rp219
(lp220
g155
asg4
(g8
S'\x9a\n\xbf\xdf\xe0\x15\xe1?'
p221
tp222
Rp223
(lp224
g206
asg4
(g8
S'\x8f\xd1\xf3?\xb0\xe2\xd9?'
p225
tp226
Rp227
(lp228
(lp229
F43.52
aI1
aF0.42871712471246526
aasssa(dp230
g2
F15715.863836050034
sa(dp231
g2
(lp232
g4
(g8
S'\x9fu\x83)\xf2Y\xe7?'
p233
tp234
Rp235
ag4
(g8
S'\xa5\x94RJ)\xa5\xe4?'
p236
tp237
Rp238
ag4
(g8
S'\x18\xc0\x11{\x88\xf6\xe7?'
p239
tp240
Rp241
ag4
(g8
S'\xf9\x0fe\xf0I\t\xe7?'
p242
tp243
Rp244
ag4
(g8
S'n\xae\xb0\x1a\x91N\xe7?'
p245
tp246
Rp247
ag4
(g8
S'oooooo\xe7?'
p248
tp249
Rp250
ag4
(g8
S'\xb8\x89pU|>\xe4?'
p251
tp252
Rp253
ag4
(g8
S'\xa4\x1b\xc5\xec\xcf\x87\xe3?'
p254
tp255
Rp256
ag4
(g8
S'\xf8\x81\x1f\xf8\x81\x1f\xe8?'
p257
tp258
Rp259
ag4
(g8
S'\xe4Ed\xbc\x88\x8c\xe7?'
p260
tp261
Rp262
ag4
(g8
S'\xdf\xda0\xcd]\xf0\xe7?'
p263
tp264
Rp265
ag4
(g8
S'yxxxxx\xe8?'
p266
tp267
Rp268
ag4
(g8
S'W\xdc9\xf4\xfaF\xe5?'
p269
tp270
Rp271
ag4
(g8
S'\xe1;>?d\x06\xe5?'
p272
tp273
Rp274
ag4
(g8
S'\xe0\xcc\xb9G<^\xe7?'
p275
tp276
Rp277
ag4
(g8
S'^%\x8dj\xcbU\xe2?'
p278
tp279
Rp280
ag4
(g8
S"(vb'vb\xe7?"
p281
tp282
Rp283
ag4
(g8
S'<\xf9|\x8f\x03*\xe6?'
p284
tp285
Rp286
ag4
(g8
S'\x88\x87\x87\x87\x87\x87\xe7?'
p287
tp288
Rp289
ag4
(g8
S'{\x82\x16\x1b\xa7v\xe7?'
p290
tp291
Rp292
ag4
(g8
S'\xc5\xc9 \xf2\xc0U\xe4?'
p293
tp294
Rp295
ag4
(g8
S'\xea\xd6\xfc\xb0H\x19\xe8?'
p296
tp297
Rp298
ag4
(g8
S"(vb'vb\xe7?"
p299
tp300
Rp301
ag4
(g8
S'\x1b\xd9y\xa9\x91\x9d\xe7?'
p302
tp303
Rp304
ag4
(g8
S'\xdb"\xd7\x99\x80\xc1\xe3?'
p305
tp306
Rp307
asa.