(dp0
S'SE6'
p1
(dp2
I7
cnumpy.core.multiarray
scalar
p3
(cnumpy
dtype
p4
(S'f8'
p5
I0
I1
tp6
Rp7
(I3
S'<'
p8
NNNI-1
I-1
I0
tp9
bS'9\x8e\xe38\x8e\xe3\xe8?'
p10
tp11
Rp12
ss.(dp0
S'SE6'
p1
(dp2
I7
(lp3
ccopy_reg
_reconstructor
p4
(c__main__
Individual
p5
c__builtin__
tuple
p6
((lp7
I15
aF0.8626903632435095
aF0.7873971570789526
acnumpy.core.multiarray
scalar
p8
(cnumpy
dtype
p9
(S'f8'
p10
I0
I1
tp11
Rp12
(I3
S'<'
p13
NNNI-1
I-1
I0
tp14
bS'r\x1c\xc7q\x1c\xc7\xe1?'
p15
tp16
Rp17
tp18
tp19
Rp20
ag4
(g5
g6
((lp21
I20
aF0.5458915783827468
aF0.5045419583098644
ag8
(g12
S'r\x1c\xc7q\x1c\xc7\xe1?'
p22
tp23
Rp24
tp25
tp26
Rp27
ag4
(g5
g6
((lp28
I36
aF0.8098510160219619
aF0.1844736280968114
ag8
(g12
S'\x1c\xc7q\x1c\xc7q\xdc?'
p29
tp30
Rp31
tp32
tp33
Rp34
ag4
(g5
g6
((lp35
I11
aF0.8521885935278827
aF0.489490361114548
ag8
(g12
S'9\x8e\xe38\x8e\xe3\xe8?'
p36
tp37
Rp38
tp39
tp40
Rp41
ag4
(g5
g6
((lp42
F38.599999999999994
aF0.11168701821638216
aF0.869108302662453
ag8
(g12
S'UUUUUU\xe5?'
p43
tp44
Rp45
tp46
tp47
Rp48
ag4
(g5
g6
((lp49
I39
aF0.3058859991434074
aF0.95074362599853
ag8
(g12
S'UUUUUU\xe5?'
p50
tp51
Rp52
tp53
tp54
Rp55
ag4
(g5
g6
((lp56
I46
aF0.1275309847301982
aF0.12290127489411473
ag8
(g12
S'r\x1c\xc7q\x1c\xc7\xe1?'
p57
tp58
Rp59
tp60
tp61
Rp62
ag4
(g5
g6
((lp63
I10
aI1
aF0.35026448613507466
ag8
(g12
S'9\x8e\xe38\x8e\xe3\xe8?'
p64
tp65
Rp66
tp67
tp68
Rp69
ag4
(g5
g6
((lp70
I18
aF0.47990491802444557
aF0.12613670881738115
ag8
(g12
S'UUUUUU\xe5?'
p71
tp72
Rp73
tp74
tp75
Rp76
ag4
(g5
g6
((lp77
I19
aF0.4940988342855148
aF0.5462310172436656
ag8
(g12
S'UUUUUU\xe5?'
p78
tp79
Rp80
tp81
tp82
Rp83
ass.(dp0
S'SE6'
p1
(dp2
I7
(dp3
cnumpy.core.multiarray
scalar
p4
(cnumpy
dtype
p5
(S'f8'
p6
I0
I1
tp7
Rp8
(I3
S'<'
p9
NNNI-1
I-1
I0
tp10
bS'\x1c\xc7q\x1c\xc7q\xdc?'
p11
tp12
Rp13
(lp14
(lp15
I36
aF0.8098510160219619
aF0.1844736280968114
aa(lp16
I32
aF0.9452342465006595
aF0.4430838139193912
aag15
a(lp17
F37.18000000000001
aF0.7946007976073132
aF0.47149935380258096
aa(lp18
F25.0
aI1
aF0.4861844611612789
aa(lp19
F18.0
aI1
aF0.15992498779098618
aa(lp20
I18
aF0.47990491802444557
aF0.12613670881738115
aa(lp21
F38.9
aF0.2892940836940252
aF0.20821113866517876
aa(lp22
I46
aF0.1275309847301982
aF0.12290127489411473
aasg4
(g8
S'9\x8e\xe38\x8e\xe3\xe8?'
p23
tp24
Rp25
(lp26
(lp27
I11
aF0.8521885935278827
aF0.489490361114548
aag27
ag27
a(lp28
I10
aI1
aF0.35026448613507466
aasg4
(g8
S'UUUUUU\xe5?'
p29
tp30
Rp31
(lp32
g20
a(lp33
F38.599999999999994
aF0.11168701821638216
aF0.869108302662453
aa(lp34
I39
aF0.3058859991434074
aF0.95074362599853
aa(lp35
I19
aF0.4940988342855148
aF0.5462310172436656
aag33
ag33
a(lp36
I10
aF0.9982560207424959
aF0.1
aasg4
(g8
S'UUUUUU\xd5?'
p37
tp38
Rp39
(lp40
g16
ag15
ag15
asg4
(g8
S'r\x1c\xc7q\x1c\xc7\xe1?'
p41
tp42
Rp43
(lp44
(lp45
I15
aF0.8626903632435095
aF0.7873971570789526
aa(lp46
I20
aF0.5458915783827468
aF0.5045419583098644
aa(lp47
I41
aF0.10189544801599963
aF0.5008484746493213
aag34
ag22
ag35
ag45
ag46
ag27
ag22
a(lp48
I50
aF0.42008796115189045
aF0.29881615634051556
aag34
ag22
ag45
ag46
ag20
ag35
asss.(dp0
S'SE6'
p1
F27527.14989900589
s.