(dp0
S'SE1'
p1
(dp2
I7
cnumpy.core.multiarray
scalar
p3
(cnumpy
dtype
p4
(S'f8'
p5
I0
I1
tp6
Rp7
(I3
S'<'
p8
NNNI-1
I-1
I0
tp9
bS'\x00\x00\x00\x00\x00\x00\xf0?'
p10
tp11
Rp12
ss.(dp0
S'SE1'
p1
(dp2
I7
(lp3
ccopy_reg
_reconstructor
p4
(c__main__
Individual
p5
c__builtin__
tuple
p6
((lp7
I15
aF0.8626903632435095
aF0.7873971570789526
acnumpy.core.multiarray
scalar
p8
(cnumpy
dtype
p9
(S'f8'
p10
I0
I1
tp11
Rp12
(I3
S'<'
p13
NNNI-1
I-1
I0
tp14
bS'\x00\x00\x00\x00\x00\x00\xf0?'
p15
tp16
Rp17
tp18
tp19
Rp20
ag4
(g5
g6
((lp21
I20
aF0.5458915783827468
aF0.5045419583098644
ag8
(g12
S'\x1c\xc7q\x1c\xc7q\xec?'
p22
tp23
Rp24
tp25
tp26
Rp27
ag4
(g5
g6
((lp28
F15.100000000000001
aF0.8064901512351528
aF0.7588895149178811
ag8
(g12
S'\x1c\xc7q\x1c\xc7q\xec?'
p29
tp30
Rp31
tp32
tp33
Rp34
ag4
(g5
g6
((lp35
I11
aF0.8521885935278827
aF0.489490361114548
ag8
(g12
S'9\x8e\xe38\x8e\xe3\xe8?'
p36
tp37
Rp38
tp39
tp40
Rp41
ag4
(g5
g6
((lp42
F27.6
aF0.530311148339423
aF0.2274943291701426
ag8
(g12
S'UUUUUU\xe5?'
p43
tp44
Rp45
tp46
tp47
Rp48
ag4
(g5
g6
((lp49
I39
aF0.3058859991434074
aF0.95074362599853
ag8
(g12
S'UUUUUU\xe5?'
p50
tp51
Rp52
tp53
tp54
Rp55
ag4
(g5
g6
((lp56
I10
aF0.9551763345779137
aF0.5713284768340177
ag8
(g12
S'9\x8e\xe38\x8e\xe3\xe8?'
p57
tp58
Rp59
tp60
tp61
Rp62
ag4
(g5
g6
((lp63
I32
aF0.9452342465006595
aF0.4430838139193912
ag8
(g12
S'UUUUUU\xe5?'
p64
tp65
Rp66
tp67
tp68
Rp69
ag4
(g5
g6
((lp70
I18
aF0.47990491802444557
aF0.12613670881738115
ag8
(g12
S'\x1c\xc7q\x1c\xc7q\xec?'
p71
tp72
Rp73
tp74
tp75
Rp76
ag4
(g5
g6
((lp77
I19
aF0.4940988342855148
aF0.5462310172436656
ag8
(g12
S'9\x8e\xe38\x8e\xe3\xe8?'
p78
tp79
Rp80
tp81
tp82
Rp83
ass.(dp0
S'SE1'
p1
(dp2
I7
(dp3
cnumpy.core.multiarray
scalar
p4
(cnumpy
dtype
p5
(S'f8'
p6
I0
I1
tp7
Rp8
(I3
S'<'
p9
NNNI-1
I-1
I0
tp10
bS'\x00\x00\x00\x00\x00\x00\xf0?'
p11
tp12
Rp13
(lp14
(lp15
I15
aF0.8626903632435095
aF0.7873971570789526
aag15
asg4
(g8
S'9\x8e\xe38\x8e\xe3\xe8?'
p16
tp17
Rp18
(lp19
(lp20
I20
aF0.5458915783827468
aF0.5045419583098644
aa(lp21
I11
aF0.8521885935278827
aF0.489490361114548
aa(lp22
I18
aF0.47990491802444557
aF0.12613670881738115
aa(lp23
I19
aF0.4940988342855148
aF0.5462310172436656
aag21
ag20
a(lp24
F15.100000000000001
aF0.8064901512351528
aF0.7588895149178811
aag21
ag21
a(lp25
I10
aF0.9551763345779137
aF0.5713284768340177
aag23
asg4
(g8
S'r\x1c\xc7q\x1c\xc7\xe1?'
p26
tp27
Rp28
(lp29
(lp30
I41
aF0.10189544801599963
aF0.5008484746493213
aa(lp31
I39
aF0.3058859991434074
aF0.95074362599853
aa(lp32
I32
aF0.9452342465006595
aF0.4430838139193912
aag31
ag32
asg4
(g8
S'\x1c\xc7q\x1c\xc7q\xec?'
p33
tp34
Rp35
(lp36
(lp37
F13.8
aF0.7574203321927944
aF0.3084632310387422
aag20
ag24
ag22
ag15
ag24
asg4
(g8
S'UUUUUU\xe5?'
p38
tp39
Rp40
(lp41
(lp42
I46
aF0.1275309847301982
aF0.12290127489411473
aag32
a(lp43
F27.6
aF0.530311148339423
aF0.2274943291701426
aag31
ag42
ag23
ag43
ag42
ag32
ag22
ag23
ag20
ag43
ag31
ag22
asg4
(g8
S'\x1c\xc7q\x1c\xc7q\xdc?'
p44
tp45
Rp46
(lp47
(lp48
I36
aF0.8098510160219619
aF0.1844736280968114
aasss.(dp0
S'SE1'
p1
F71952.00214409828
s.