(dp0
S'SE3'
p1
(dp2
I7
cnumpy.core.multiarray
scalar
p3
(cnumpy
dtype
p4
(S'f8'
p5
I0
I1
tp6
Rp7
(I3
S'<'
p8
NNNI-1
I-1
I0
tp9
bS'\x00\x00\x00\x00\x00\x00\xf0?'
p10
tp11
Rp12
ss.(dp0
S'SE3'
p1
(dp2
I7
(lp3
ccopy_reg
_reconstructor
p4
(c__main__
Individual
p5
c__builtin__
tuple
p6
((lp7
I15
aF0.8626903632435095
aF0.7873971570789526
acnumpy.core.multiarray
scalar
p8
(cnumpy
dtype
p9
(S'f8'
p10
I0
I1
tp11
Rp12
(I3
S'<'
p13
NNNI-1
I-1
I0
tp14
bS'9\x8e\xe38\x8e\xe3\xe8?'
p15
tp16
Rp17
tp18
tp19
Rp20
ag4
(g5
g6
((lp21
I20
aF0.5458915783827468
aF0.5045419583098644
ag8
(g12
S'UUUUUU\xe5?'
p22
tp23
Rp24
tp25
tp26
Rp27
ag4
(g5
g6
((lp28
F44.5
aF0.1
aF0.30284983551095945
ag8
(g12
S'\x1c\xc7q\x1c\xc7q\xdc?'
p29
tp30
Rp31
tp32
tp33
Rp34
ag4
(g5
g6
((lp35
I11
aF0.8521885935278827
aF0.489490361114548
ag8
(g12
S'\x1c\xc7q\x1c\xc7q\xec?'
p36
tp37
Rp38
tp39
tp40
Rp41
ag4
(g5
g6
((lp42
I41
aF0.10189544801599963
aF0.5008484746493213
ag8
(g12
S'r\x1c\xc7q\x1c\xc7\xe1?'
p43
tp44
Rp45
tp46
tp47
Rp48
ag4
(g5
g6
((lp49
F21.5
aF0.25814576862191174
aF0.1
ag8
(g12
S'r\x1c\xc7q\x1c\xc7\xe1?'
p50
tp51
Rp52
tp53
tp54
Rp55
ag4
(g5
g6
((lp56
F12.400000000000002
aI1
aF0.44534861766567774
ag8
(g12
S'UUUUUU\xe5?'
p57
tp58
Rp59
tp60
tp61
Rp62
ag4
(g5
g6
((lp63
F24.65
aI1
aF0.7157270666995748
ag8
(g12
S'r\x1c\xc7q\x1c\xc7\xe1?'
p64
tp65
Rp66
tp67
tp68
Rp69
ag4
(g5
g6
((lp70
I18
aF0.47990491802444557
aF0.12613670881738115
ag8
(g12
S'UUUUUU\xe5?'
p71
tp72
Rp73
tp74
tp75
Rp76
ag4
(g5
g6
((lp77
I10
aI1
aF0.7129386973083556
ag8
(g12
S'\x00\x00\x00\x00\x00\x00\xf0?'
p78
tp79
Rp80
tp81
tp82
Rp83
ass.(dp0
S'SE3'
p1
(dp2
I7
(dp3
cnumpy.core.multiarray
scalar
p4
(cnumpy
dtype
p5
(S'f8'
p6
I0
I1
tp7
Rp8
(I3
S'<'
p9
NNNI-1
I-1
I0
tp10
bS'\x00\x00\x00\x00\x00\x00\xf0?'
p11
tp12
Rp13
(lp14
(lp15
I10
aI1
aF0.7129386973083556
aasg4
(g8
S'9\x8e\xe38\x8e\xe3\xe8?'
p16
tp17
Rp18
(lp19
(lp20
I15
aF0.8626903632435095
aF0.7873971570789526
aag15
asg4
(g8
S'\x1c\xc7q\x1c\xc7q\xec?'
p21
tp22
Rp23
(lp24
(lp25
I11
aF0.8521885935278827
aF0.489490361114548
aag25
ag25
asg4
(g8
S'r\x1c\xc7q\x1c\xc7\xe1?'
p26
tp27
Rp28
(lp29
(lp30
I19
aF0.4940988342855148
aF0.5462310172436656
aa(lp31
I20
aF0.5458915783827468
aF0.5045419583098644
aa(lp32
F12.400000000000002
aI1
aF0.44534861766567774
aa(lp33
I18
aF0.47990491802444557
aF0.12613670881738115
aag30
ag31
a(lp34
F21.5
aF0.25814576862191174
aF0.1
aa(lp35
I41
aF0.10189544801599963
aF0.5008484746493213
aa(lp36
F24.65
aI1
aF0.7157270666995748
aa(lp37
F17.45
aF0.7074589586617358
aF0.7691014609067859
aasg4
(g8
S'\x1c\xc7q\x1c\xc7q\xdc?'
p38
tp39
Rp40
(lp41
g35
a(lp42
I39
aF0.3058859991434074
aF0.95074362599853
aa(lp43
I46
aF0.1275309847301982
aF0.12290127489411473
aa(lp44
F44.5
aF0.1
aF0.30284983551095945
aag35
ag42
ag44
ag35
a(lp45
F22.450000000000003
aF0.3678288906331115
aF0.37714928596381647
aag44
ag34
asg4
(g8
S'UUUUUU\xe5?'
p46
tp47
Rp48
(lp49
g20
ag31
ag33
ag20
ag32
a(lp50
F15.200000000000003
aI1
aF0.32874128567568706
aag20
ag25
ag32
asg4
(g8
S'UUUUUU\xd5?'
p51
tp52
Rp53
(lp54
(lp55
I36
aF0.8098510160219619
aF0.1844736280968114
aa(lp56
I32
aF0.9452342465006595
aF0.4430838139193912
aag56
ag56
asss.(dp0
S'SE3'
p1
F56930.012748003006
s.