(dp0
S'SE0'
p1
(dp2
I7
cnumpy.core.multiarray
scalar
p3
(cnumpy
dtype
p4
(S'f8'
p5
I0
I1
tp6
Rp7
(I3
S'<'
p8
NNNI-1
I-1
I0
tp9
bS'9\x8e\xe38\x8e\xe3\xe8?'
p10
tp11
Rp12
ss.(dp0
S'SE0'
p1
(dp2
I7
(lp3
ccopy_reg
_reconstructor
p4
(c__main__
Individual
p5
c__builtin__
tuple
p6
((lp7
I15
aF0.8626903632435095
aF0.7873971570789526
acnumpy.core.multiarray
scalar
p8
(cnumpy
dtype
p9
(S'f8'
p10
I0
I1
tp11
Rp12
(I3
S'<'
p13
NNNI-1
I-1
I0
tp14
bS'9\x8e\xe38\x8e\xe3\xe8?'
p15
tp16
Rp17
tp18
tp19
Rp20
ag4
(g5
g6
((lp21
I10
aF0.7478641935444129
aF0.1
ag8
(g12
S'9\x8e\xe38\x8e\xe3\xe8?'
p22
tp23
Rp24
tp25
tp26
Rp27
ag4
(g5
g6
((lp28
I10
aF0.34174588095507297
aF0.1
ag8
(g12
S'UUUUUU\xe5?'
p29
tp30
Rp31
tp32
tp33
Rp34
ag4
(g5
g6
((lp35
I11
aF0.8521885935278827
aF0.489490361114548
ag8
(g12
S'9\x8e\xe38\x8e\xe3\xe8?'
p36
tp37
Rp38
tp39
tp40
Rp41
ag4
(g5
g6
((lp42
I41
aF0.10189544801599963
aF0.5008484746493213
ag8
(g12
S'r\x1c\xc7q\x1c\xc7\xe1?'
p43
tp44
Rp45
tp46
tp47
Rp48
ag4
(g5
g6
((lp49
I39
aF0.3058859991434074
aF0.95074362599853
ag8
(g12
S'UUUUUU\xe5?'
p50
tp51
Rp52
tp53
tp54
Rp55
ag4
(g5
g6
((lp56
F18.6
aF0.6886849641719323
aF0.8194685642543105
ag8
(g12
S'9\x8e\xe38\x8e\xe3\xe8?'
p57
tp58
Rp59
tp60
tp61
Rp62
ag4
(g5
g6
((lp63
I32
aF0.9452342465006595
aF0.4430838139193912
ag8
(g12
S'r\x1c\xc7q\x1c\xc7\xe1?'
p64
tp65
Rp66
tp67
tp68
Rp69
ag4
(g5
g6
((lp70
I18
aF0.47990491802444557
aF0.12613670881738115
ag8
(g12
S'UUUUUU\xe5?'
p71
tp72
Rp73
tp74
tp75
Rp76
ag4
(g5
g6
((lp77
I19
aF0.4940988342855148
aF0.5462310172436656
ag8
(g12
S'UUUUUU\xe5?'
p78
tp79
Rp80
tp81
tp82
Rp83
ass.(dp0
S'SE0'
p1
(dp2
I7
(dp3
cnumpy.core.multiarray
scalar
p4
(cnumpy
dtype
p5
(S'f8'
p6
I0
I1
tp7
Rp8
(I3
S'<'
p9
NNNI-1
I-1
I0
tp10
bS'\x1c\xc7q\x1c\xc7q\xdc?'
p11
tp12
Rp13
(lp14
(lp15
I19
aF0.4940988342855148
aF0.5462310172436656
aa(lp16
F38.3
aF0.7308263358990643
aF0.45361993195611267
aa(lp17
I20
aF0.5458915783827468
aF0.5045419583098644
aa(lp18
I36
aF0.8098510160219619
aF0.1844736280968114
aa(lp19
I32
aF0.9452342465006595
aF0.4430838139193912
aag19
a(lp20
F30.4
aI1
aF0.14475516880642908
aasg4
(g8
S'9\x8e\xe38\x8e\xe3\xe8?'
p21
tp22
Rp23
(lp24
(lp25
I15
aF0.8626903632435095
aF0.7873971570789526
aa(lp26
I11
aF0.8521885935278827
aF0.489490361114548
aag25
a(lp27
I10
aF0.7478641935444129
aF0.1
aa(lp28
F18.6
aF0.6886849641719323
aF0.8194685642543105
aag27
ag28
asg4
(g8
S'UUUUUU\xe5?'
p29
tp30
Rp31
(lp32
g26
a(lp33
I18
aF0.47990491802444557
aF0.12613670881738115
aag28
ag33
ag26
a(lp34
F12.8
aF0.48985012327381666
aF0.1
aa(lp35
I10
aF0.34174588095507297
aF0.1
aa(lp36
I39
aF0.3058859991434074
aF0.95074362599853
aag15
asg4
(g8
S'UUUUUU\xd5?'
p37
tp38
Rp39
(lp40
(lp41
I46
aF0.1275309847301982
aF0.12290127489411473
aa(lp42
I41
aF0.10189544801599963
aF0.5008484746493213
aasg4
(g8
S'r\x1c\xc7q\x1c\xc7\xe1?'
p43
tp44
Rp45
(lp46
g17
ag18
ag42
ag36
ag19
a(lp47
F41.1
aF0.38812955758260415
aF0.3772488315021315
aag36
ag15
a(lp48
F29.200000000000003
aF0.1
aF0.728880652427123
aag42
ag36
ag33
ag15
ag26
ag33
asss.(dp0
S'SE0'
p1
F9659.816333055496
s.