(dp0
S'SE8'
p1
(dp2
I7
cnumpy.core.multiarray
scalar
p3
(cnumpy
dtype
p4
(S'f8'
p5
I0
I1
tp6
Rp7
(I3
S'<'
p8
NNNI-1
I-1
I0
tp9
bS'\x1c\xc7q\x1c\xc7q\xec?'
p10
tp11
Rp12
ss.(dp0
S'SE8'
p1
(dp2
I7
(lp3
ccopy_reg
_reconstructor
p4
(c__main__
Individual
p5
c__builtin__
tuple
p6
((lp7
I10
aI1
aF0.6178713964882979
acnumpy.core.multiarray
scalar
p8
(cnumpy
dtype
p9
(S'f8'
p10
I0
I1
tp11
Rp12
(I3
S'<'
p13
NNNI-1
I-1
I0
tp14
bS'9\x8e\xe38\x8e\xe3\xe8?'
p15
tp16
Rp17
tp18
tp19
Rp20
ag4
(g5
g6
((lp21
I20
aF0.5458915783827468
aF0.5045419583098644
ag8
(g12
S'UUUUUU\xe5?'
p22
tp23
Rp24
tp25
tp26
Rp27
ag4
(g5
g6
((lp28
F13.8
aF0.7574203321927944
aF0.3084632310387422
ag8
(g12
S'\x1c\xc7q\x1c\xc7q\xec?'
p29
tp30
Rp31
tp32
tp33
Rp34
ag4
(g5
g6
((lp35
I11
aF0.8521885935278827
aF0.489490361114548
ag8
(g12
S'9\x8e\xe38\x8e\xe3\xe8?'
p36
tp37
Rp38
tp39
tp40
Rp41
ag4
(g5
g6
((lp42
I41
aF0.10189544801599963
aF0.5008484746493213
ag8
(g12
S'UUUUUU\xe5?'
p43
tp44
Rp45
tp46
tp47
Rp48
ag4
(g5
g6
((lp49
I10
aI1
aF0.449055098603597
ag8
(g12
S'9\x8e\xe38\x8e\xe3\xe8?'
p50
tp51
Rp52
tp53
tp54
Rp55
ag4
(g5
g6
((lp56
I46
aF0.1275309847301982
aF0.12290127489411473
ag8
(g12
S'UUUUUU\xe5?'
p57
tp58
Rp59
tp60
tp61
Rp62
ag4
(g5
g6
((lp63
I32
aF0.9452342465006595
aF0.4430838139193912
ag8
(g12
S'UUUUUU\xe5?'
p64
tp65
Rp66
tp67
tp68
Rp69
ag4
(g5
g6
((lp70
F35.099999999999994
aF0.22949220527960268
aF0.8085292533260238
ag8
(g12
S'9\x8e\xe38\x8e\xe3\xe8?'
p71
tp72
Rp73
tp74
tp75
Rp76
ag4
(g5
g6
((lp77
I19
aF0.4940988342855148
aF0.5462310172436656
ag8
(g12
S'9\x8e\xe38\x8e\xe3\xe8?'
p78
tp79
Rp80
tp81
tp82
Rp83
ass.(dp0
S'SE8'
p1
(dp2
I7
(dp3
cnumpy.core.multiarray
scalar
p4
(cnumpy
dtype
p5
(S'f8'
p6
I0
I1
tp7
Rp8
(I3
S'<'
p9
NNNI-1
I-1
I0
tp10
bS'\x1c\xc7q\x1c\xc7q\xec?'
p11
tp12
Rp13
(lp14
(lp15
F13.8
aF0.7574203321927944
aF0.3084632310387422
aag15
asg4
(g8
S'9\x8e\xe38\x8e\xe3\xe8?'
p16
tp17
Rp18
(lp19
(lp20
I11
aF0.8521885935278827
aF0.489490361114548
aag20
a(lp21
I10
aI1
aF0.449055098603597
aa(lp22
I10
aI1
aF0.6178713964882979
aag21
a(lp23
F35.099999999999994
aF0.22949220527960268
aF0.8085292533260238
aa(lp24
F37.6
aF0.1
aF0.16592197596744593
aag21
a(lp25
I19
aF0.4940988342855148
aF0.5462310172436656
aasg4
(g8
S'UUUUUU\xe5?'
p26
tp27
Rp28
(lp29
(lp30
I15
aF0.8626903632435095
aF0.7873971570789526
aa(lp31
I20
aF0.5458915783827468
aF0.5045419583098644
aa(lp32
I36
aF0.8098510160219619
aF0.1844736280968114
aa(lp33
I41
aF0.10189544801599963
aF0.5008484746493213
aa(lp34
I39
aF0.3058859991434074
aF0.95074362599853
aa(lp35
I46
aF0.1275309847301982
aF0.12290127489411473
aa(lp36
I32
aF0.9452342465006595
aF0.4430838139193912
aag25
ag30
ag31
a(lp37
F21.400000000000002
aF0.34855720132197276
aF0.5031132783956077
aag33
ag35
a(lp38
I18
aF0.47990491802444557
aF0.12613670881738115
aag31
a(lp39
I50
aF0.18117782963316165
aF0.22072899132881837
aag33
ag35
ag36
ag25
ag31
ag20
a(lp40
F32.44
aF0.3992979727446466
aF0.9069435606214221
aa(lp41
I50
aF0.1
aF0.7266132080387401
aag36
ag23
asg4
(g8
S'r\x1c\xc7q\x1c\xc7\xe1?'
p42
tp43
Rp44
(lp45
g38
ag36
a(lp46
F40.9
aF0.5492524431695559
aF0.1
aasss.(dp0
S'SE8'
p1
F86964.1151599884
s.