(dp0
S'scifi'
p1
(lp2
(dp3
I0
(lp4
(lp5
(lp6
I94
aF0.31389783172006575
aF0.08031773024457
aa(lp7
I0
acnumpy.core.multiarray
scalar
p8
(cnumpy
dtype
p9
(S'f8'
p10
I0
I1
tp11
Rp12
(I3
S'<'
p13
NNNI-1
I-1
I0
tp14
bS'\x93^\xfe\xb4\x85\x06\xec?'
p15
tp16
Rp17
aaaF2965.9310829639435
ag8
(g12
S"'\x05\xc9\x9fWY\xec?"
p18
tp19
Rp20
ag8
(g12
S'I\xe3\xf0-\x18P\xe9?'
p21
tp22
Rp23
asI1
(lp24
(lp25
(lp26
I126
aF0.2198924426511335
aF0.05739313376435298
aa(lp27
I0
ag8
(g12
S'\xa3U\xf2f\xe7R\xed?'
p28
tp29
Rp30
aaaF3403.1809010505676
ag8
(g12
S',\xb0\xc0\x02\x0b,\xec?'
p31
tp32
Rp33
ag8
(g12
S'\x07i\x90\x06i\x90\xe6?'
p34
tp35
Rp36
asI2
(lp37
(lp38
(lp39
I81
aF0.6745006171680133
aF0.029491516008946124
aa(lp40
I0
ag8
(g12
S'\xf3\xdf\x95z\x8b\xe2\xeb?'
p41
tp42
Rp43
aaaF2945.391489982605
ag8
(g12
S'n\xe0\xb5;\xe5\xaa\xeb?'
p44
tp45
Rp46
ag8
(g12
S'\xf9\xc1\x9c\xc7\xa5o\xe7?'
p47
tp48
Rp49
asI3
(lp50
(lp51
(lp52
I150
aF0.6268120450585134
aF0.09601453186882675
aa(lp53
I0
ag8
(g12
S'W\xfd\x85R\xc6\x01\xec?'
p54
tp55
Rp56
aaaF3560.322285890579
ag8
(g12
S'q\xe7\xd0\xeb\x1bU\xeb?'
p57
tp58
Rp59
ag8
(g12
S'\xb6m\xdb\xb6m\xdb\xe6?'
p60
tp61
Rp62
asI4
(lp63
(lp64
(lp65
F125.4
aF0.3498723883611845
aF0.12063909140046655
aa(lp66
I0
ag8
(g12
S'\x12W\xba7\xa0L\xec?'
p67
tp68
Rp69
aaaF3379.3414001464844
ag8
(g12
S'M\xc8\x11q\xdd\x84\xec?'
p70
tp71
Rp72
ag8
(g12
S'V\xd1\xf2U\xeeh\xe6?'
p73
tp74
Rp75
asa(lp76
g20
ag33
ag46
ag59
ag72
aa(lp77
g23
ag36
ag49
ag62
ag75
aaF16254.478303194046
as.