(dp0
S'SE8'
p1
(lp2
(dp3
I0
(lp4
(lp5
(lp6
I106
aF0.5022425550648523
aF0.7667209030335326
aa(lp7
F0.75
acnumpy.core.multiarray
scalar
p8
(cnumpy
dtype
p9
(S'f8'
p10
I0
I1
tp11
Rp12
(I3
S'<'
p13
NNNI-1
I-1
I0
tp14
bS'\tqV~B\x9c\xc5?'
p15
tp16
Rp17
aaaF57812.33401107788
ag8
(g12
S'\xc2\xf9\x18\x9c\x8f\xc1\xc9?'
p18
tp19
Rp20
asI1
(lp21
(lp22
(lp23
I84
aF0.22395949272646726
aF0.6323070232744209
aa(lp24
F0.75
ag8
(g12
S'\x00\x00\x00\x00\x00\x00\xd8?'
p25
tp26
Rp27
aaaF54387.74421620369
ag8
(g12
S'R\xe3\x07Q\xe3\x07\xd1?'
p28
tp29
Rp30
asI2
(lp31
(lp32
(lp33
I138
aF0.5705482726222524
aF0.4394160207713739
aa(lp34
F0.75
ag8
(g12
S'\x0b\x85i\xfbBa\xca?'
p35
tp36
Rp37
aaaF57518.3665060997
ag8
(g12
S'U\xcc\x86\xe7${\xd1?'
p38
tp39
Rp40
asI3
(lp41
(lp42
(lp43
I97
aF0.8056071015210313
aF0.27879932197685525
aa(lp44
F0.75
ag8
(g12
S'\xd7rp\xb3_\x88\xd5?'
p45
tp46
Rp47
aaaF55387.64553284645
ag8
(g12
S'\t\xda\\a5"\xcd?'
p48
tp49
Rp50
asI4
(lp51
(lp52
(lp53
F90.7
aF0.13716445620306947
aF0.4579530156868202
aa(lp54
F0.75
ag8
(g12
S'S\x0b+=\xb5\xb0\xd2?'
p55
tp56
Rp57
aaaF53349.025872945786
ag8
(g12
S'\xac\xe8Y\xe9|\xe2\xce?'
p58
tp59
Rp60
asa(lp61
g20
ag30
ag40
ag50
ag60
aaF278456.1078879833
as.