(dp0
S'SE6'
p1
(lp2
(dp3
I0
(lp4
(lp5
(lp6
I70
aF0.1
aF0.44872353340320287
aa(lp7
I0
acnumpy.core.multiarray
scalar
p8
(cnumpy
dtype
p9
(S'f8'
p10
I0
I1
tp11
Rp12
(I3
S'<'
p13
NNNI-1
I-1
I0
tp14
bS'\x0c\xb4@\x0b\xb4@\xeb?'
p15
tp16
Rp17
aaaF4550.380423069
ag8
(g12
S'8\x1c\x0e\x87\xc3\xe1\xe8?'
p18
tp19
Rp20
ag8
(g12
S'O\xc1\xcb)x9\xe5?'
p21
tp22
Rp23
asI1
(lp24
(lp25
(lp26
I95
aF0.6254103155430615
aF0.12692029163261617
aa(lp27
I0
ag8
(g12
S'\xb10\x9a\xbd-\xe6\xe8?'
p28
tp29
Rp30
aaaF5630.130925178528
ag8
(g12
S'\x87\xb6pY\xfc\x87\xe6?'
p31
tp32
Rp33
ag8
(g12
S'"\xb2sm\x86"\xe2?'
p34
tp35
Rp36
asI2
(lp37
(lp38
(lp39
F80.6
aF0.1
aF0.2910790101783326
aa(lp40
I0
ag8
(g12
S'\x7fX\xa4\x0c<\xdd\xea?'
p41
tp42
Rp43
aaaF4716.745010137558
ag8
(g12
S'\xd4Bw\xecjX\xea?'
p44
tp45
Rp46
ag8
(g12
S'=\x17r\xa4\x9b*\xe1?'
p47
tp48
Rp49
asI3
(lp50
(lp51
(lp52
F73.4
aF0.15916523637872818
aF0.8080234495425607
aa(lp53
I0
ag8
(g12
S'899999\xe9?'
p54
tp55
Rp56
aaaF5300.522207021713
ag8
(g12
S'N\xa9\xeeb\xad"\xea?'
p57
tp58
Rp59
ag8
(g12
S'\xce\xf0\xd3\x19~:\xe3?'
p60
tp61
Rp62
asI4
(lp63
(lp64
(lp65
I130
aF0.6581911101321909
aF0.32421071259489287
aa(lp66
I0
ag8
(g12
S']\x8c\xd2\xbb\x99\xe6\xe9?'
p67
tp68
Rp69
aaaF5650.4673681259155
ag8
(g12
S'\\\r\x9e#P\xb4\xe5?'
p70
tp71
Rp72
ag8
(g12
S'\\t\xd1E\x17]\xe4?'
p73
tp74
Rp75
asa(lp76
g20
ag33
ag46
ag59
ag72
aa(lp77
g23
ag36
ag49
ag62
ag75
aaF25849.161998987198
as.