(dp0
S'SE3'
p1
(lp2
(dp3
I0
(lp4
(lp5
(lp6
F150.0
aF0.5242531480256815
aF0.70342494820964
aa(lp7
I0
acnumpy.core.multiarray
scalar
p8
(cnumpy
dtype
p9
(S'f8'
p10
I0
I1
tp11
Rp12
(I3
S'<'
p13
NNNI-1
I-1
I0
tp14
bS'X\xfc\xabsd\x06\xe3?'
p15
tp16
Rp17
aaaF23050.665521860123
ag8
(g12
S'\xfb\xea\xab\xaf\xbe\xfa\xda?'
p18
tp19
Rp20
ag8
(g12
S'Zas \xd1\n\xdb?'
p21
tp22
Rp23
asI1
(lp24
(lp25
(lp26
I92
aF0.10273314478370695
aF0.07084467754105572
aa(lp27
I0
ag8
(g12
S'\xda\xc8\x8c\t\xdf\xd4\xe3?'
p28
tp29
Rp30
aaaF19350.827727794647
ag8
(g12
S'\xd4\x08\xcb=\x8d\xb0\xe4?'
p31
tp32
Rp33
ag8
(g12
S'\x8dd\x11 \xc3\x0f\xd5?'
p34
tp35
Rp36
asI2
(lp37
(lp38
(lp39
I94
aF0.5822356669433782
aF0.21543832268147808
aa(lp40
I0
ag8
(g12
S'\x9d\xb6\xff\xd4\xcd\x9a\xe4?'
p41
tp42
Rp43
aaaF17186.010512828827
ag8
(g12
S'\xd3\xea\xd7\xa1\xc4\x98\xdc?'
p44
tp45
Rp46
ag8
(g12
S'\xa0\xb8\xbd\xd4\xd7#\xd8?'
p47
tp48
Rp49
asI3
(lp50
(lp51
(lp52
I98
aF0.37450055992150744
aF0.510858496545519
aa(lp53
I0
ag8
(g12
S'\xd2@\x7fF4\xb9\xe4?'
p54
tp55
Rp56
aaaF19442.186888217926
ag8
(g12
S'7%7?)\xac\xe0?'
p57
tp58
Rp59
ag8
(g12
S'\xfe^\xe1C\xd8\xbf\xdd?'
p60
tp61
Rp62
asI4
(lp63
(lp64
(lp65
I110
aF0.3440828004182789
aF0.2454307855057572
aa(lp66
I0
ag8
(g12
S'\xaf\x98\x07\x16\xf3\xc0\xe2?'
p67
tp68
Rp69
aaaF20255.344839811325
ag8
(g12
S'V|\xb64S\xe0\xe1?'
p70
tp71
Rp72
ag8
(g12
S'\x16W\\q\xc5\x15\xd7?'
p73
tp74
Rp75
asa(lp76
g20
ag33
ag46
ag59
ag72
aa(lp77
g23
ag36
ag49
ag62
ag75
aaF99285.82732510567
as.