(dp0
S'scifi'
p1
(lp2
(dp3
I0
(lp4
(lp5
(lp6
I131
aF0.786238804427498
aF0.9085625064469703
aa(lp7
F1.0
acnumpy.core.multiarray
scalar
p8
(cnumpy
dtype
p9
(S'f8'
p10
I0
I1
tp11
Rp12
(I3
S'<'
p13
NNNI-1
I-1
I0
tp14
bS' io5\x13\xdd\xe3?'
p15
tp16
Rp17
aaaF15653.131659030914
ag8
(g12
S'\x00\x00\x00\x00\x00\x00\xe4?'
p18
tp19
Rp20
asI1
(lp21
(lp22
(lp23
I121
aF0.9348022722235307
aF0.9193413422324184
aa(lp24
F1.0
ag8
(g12
S'\x00\x00\x00\x00\x00\x00\xe4?'
p25
tp26
Rp27
aaaF15441.182574987411
ag8
(g12
S'o7\xe5\xb0\xec\xcc\xe5?'
p28
tp29
Rp30
asI2
(lp31
(lp32
(lp33
F109.1
aF0.21161158238907873
aI1
aa(lp34
F1.0
ag8
(g12
S'\xeb;\x1b\xf5\x9d\x8d\xea?'
p35
tp36
Rp37
aaaF17168.354903936386
ag8
(g12
S"\x9e\x10g\xe5'\xc4\xe9?"
p38
tp39
Rp40
asI3
(lp41
(lp42
(lp43
F80.7
aF0.14323254015767423
aF0.7312803772559391
aa(lp44
F0.75
ag8
(g12
S'\x1b\x0f\xf9j\x9e\x94\xec?'
p45
tp46
Rp47
aaaF18987.88377404213
ag8
(g12
S'\xa4\x8b.\xba\xe8\xa2\xeb?'
p48
tp49
Rp50
asI4
(lp51
(lp52
(lp53
I150
aF0.2656647615236077
aF0.7376001225594495
aa(lp54
F1.0
ag8
(g12
S'\xcd\xc5-Ly\xa3\xe4?'
p55
tp56
Rp57
aaaF18754.55832695961
ag8
(g12
S'\xec]\xa4_\xe7\x94\xe4?'
p58
tp59
Rp60
asa(lp61
g20
ag30
ag40
ag50
ag60
aaF86005.41646504402
as.