(dp0
S'rpg'
p1
(lp2
(dp3
I0
(lp4
(lp5
(lp6
I75
aF0.5541901588294901
aF0.14524111983256258
aa(lp7
I0
acnumpy.core.multiarray
scalar
p8
(cnumpy
dtype
p9
(S'f8'
p10
I0
I1
tp11
Rp12
(I3
S'<'
p13
NNNI-1
I-1
I0
tp14
bS'\t\xe6P\xaf\xb7h\xd8?'
p15
tp16
Rp17
aaaF2387.323271036148
ag8
(g12
S'R\xb9\x01\xce\xa9\xc3\xd5?'
p18
tp19
Rp20
ag8
(g12
S'T1\xdcB\xda\x19\xd6?'
p21
tp22
Rp23
asI1
(lp24
(lp25
(lp26
I108
aF0.7026380909747443
aF0.08544165783068508
aa(lp27
I0
ag8
(g12
S'\x18\xf7\x81\x10\xf1\xe8\xd7?'
p28
tp29
Rp30
aaaF2584.0028331279755
ag8
(g12
S'I\xfflH\xffl\xd8?'
p31
tp32
Rp33
ag8
(g12
S'Kdt\x18\x03\x82\xd4?'
p34
tp35
Rp36
asI2
(lp37
(lp38
(lp39
F112.9
aF0.21837848285572087
aF0.01
aa(lp40
I0
ag8
(g12
S'\xd6og\x91\xbf\xd8\xda?'
p41
tp42
Rp43
aaaF2336.249008178711
ag8
(g12
S'TUUUUU\xd5?'
p44
tp45
Rp46
ag8
(g12
S'\xf4\x8ar1\xd9\xed\xd4?'
p47
tp48
Rp49
asI3
(lp50
(lp51
(lp52
I143
aF0.4664413863789234
aF0.19966112285651308
aa(lp53
I0
ag8
(g12
S'\x01\xda\xe1\xb0=\xf6\xd7?'
p54
tp55
Rp56
aaaF2682.5450031757355
ag8
(g12
S'\x9b\x03\x89V\xd8\x1c\xd8?'
p57
tp58
Rp59
ag8
(g12
S'\xe29\xe8\xf2\xe9\xbf\xd5?'
p60
tp61
Rp62
asI4
(lp63
(lp64
(lp65
I82
aF0.7270639132826404
aF0.17561390559594675
aa(lp66
I0
ag8
(g12
S'\x107\x08[f\xb3\xd8?'
p67
tp68
Rp69
aaaF2351.140242099762
ag8
(g12
S'5\xc2rO#,\xd7?'
p70
tp71
Rp72
ag8
(g12
S'\x10\xc7j:gB\xd5?'
p73
tp74
Rp75
asa(lp76
g20
ag33
ag46
ag59
ag72
aa(lp77
g23
ag36
ag49
ag62
ag75
aaF12341.43567109108
as.