(dp0
S'photo'
p1
(lp2
(dp3
I0
(lp4
(lp5
(lp6
I81
aF0.42827790879780325
aF0.9146906250457726
aa(lp7
I0
acnumpy.core.multiarray
scalar
p8
(cnumpy
dtype
p9
(S'f8'
p10
I0
I1
tp11
Rp12
(I3
S'<'
p13
NNNI-1
I-1
I0
tp14
bS'\x17jN\x02q\xa1\xde?'
p15
tp16
Rp17
aaaF2182.0180258750916
ag8
(g12
S'\t\x03\x01\xab\xe3K\xd9?'
p18
tp19
Rp20
ag8
(g12
S'\xf8WW\xe4j\xa2\xdd?'
p21
tp22
Rp23
asI1
(lp24
(lp25
(lp26
F129.4
aF0.6963449440171124
aF0.01
aa(lp27
I0
ag8
(g12
S'o\xe1Wc"=\xe0?'
p28
tp29
Rp30
aaaF2269.7464759349823
ag8
(g12
S'1\x89\x90jY\x07\xda?'
p31
tp32
Rp33
ag8
(g12
S'\x1ac\x8c1\xc6\x18\xdb?'
p34
tp35
Rp36
asI2
(lp37
(lp38
(lp39
F99.3
aF0.4639235197620381
aF0.12973466047464682
aa(lp40
I0
ag8
(g12
S'\xa6\x06\xf6\x8e\xa9\x81\xdd?'
p41
tp42
Rp43
aaaF2300.0244200229645
ag8
(g12
S'~Y\xef\x97\xf5~\xd9?'
p44
tp45
Rp46
ag8
(g12
S'\xden\xb7\xdb\xedv\xdb?'
p47
tp48
Rp49
asI3
(lp50
(lp51
(lp52
F77.7
aF0.33346987895460384
aF0.7620400025354607
aa(lp53
I0
ag8
(g12
S']"\x1e)\xa6\xfa\xde?'
p54
tp55
Rp56
aaaF1990.2197060585022
ag8
(g12
S'(\xf3\x1d\xbaM\xf5\xd8?'
p57
tp58
Rp59
ag8
(g12
S'\xb45:d\xf7i\xdb?'
p60
tp61
Rp62
asI4
(lp63
(lp64
(lp65
I104
aF0.21913308660141412
aF0.30596653584178596
aa(lp66
I0
ag8
(g12
S'\xff3G\xd5L8\xde?'
p67
tp68
Rp69
aaaF2199.7158279418945
ag8
(g12
S'\x9c\x0e\xeeA\xcc\xe7\xdb?'
p70
tp71
Rp72
ag8
(g12
S'_eqF\xbb\x87\xdd?'
p73
tp74
Rp75
asa(lp76
g20
ag33
ag46
ag59
ag72
aa(lp77
g23
ag36
ag49
ag62
ag75
aaF10941.965647935867
as.