(dp0
S'SE8'
p1
(lp2
(dp3
I0
(lp4
(lp5
(lp6
I129
aF0.46454324211454834
aF0.05931347200922431
aa(lp7
I0
acnumpy.core.multiarray
scalar
p8
(cnumpy
dtype
p9
(S'f8'
p10
I0
I1
tp11
Rp12
(I3
S'<'
p13
NNNI-1
I-1
I0
tp14
bS'r\x91*8\xf1\xe8\xd6?'
p15
tp16
Rp17
aaaF14313.252250909805
ag8
(g12
S'\x81\x12\xdeh\xea\xfc\xda?'
p18
tp19
Rp20
ag8
(g12
S'8^\x88t\x14\xab\xcc?'
p21
tp22
Rp23
asI1
(lp24
(lp25
(lp26
F94.1
aF0.18977940315090625
aF0.8483744841033651
aa(lp27
I0
ag8
(g12
S'\xa4\xd9\xb8\xf9\x06j\xd8?'
p28
tp29
Rp30
aaaF11233.888215065002
ag8
(g12
S'\x9c\x98\x90[\xf06\xd0?'
p31
tp32
Rp33
ag8
(g12
S'Ci\xe3\x1d\xd5\xac\xcf?'
p34
tp35
Rp36
asI2
(lp37
(lp38
(lp39
I135
aF0.48850190678389604
aF0.30094997090207537
aa(lp40
I0
ag8
(g12
S'\x04\x9d\xf5\xba\xda\x9e\xd4?'
p41
tp42
Rp43
aaaF12898.790246963501
ag8
(g12
S'V\xb43\xa5\xd7_\xdc?'
p44
tp45
Rp46
ag8
(g12
S'\xe7y\x9e\xe7y\x9e\xd1?'
p47
tp48
Rp49
asI3
(lp50
(lp51
(lp52
I97
aF0.34935651369022336
aF0.3961268461352136
aa(lp53
I0
ag8
(g12
S'\xe0\xe9\xd6\xfc\xb0H\xd9?'
p54
tp55
Rp56
aaaF11611.715153217316
ag8
(g12
S'\xc5N\xec\xc4N\xec\xd0?'
p57
tp58
Rp59
ag8
(g12
S'\xee\x1b\xd6\xbea\xed\xcb?'
p60
tp61
Rp62
asI4
(lp63
(lp64
(lp65
I148
aF0.2626877329151842
aF0.07497323658429174
aa(lp66
I0
ag8
(g12
S'\x81D+l\x0e$\xda?'
p67
tp68
Rp69
aaaF14960.810065031052
ag8
(g12
S'\xdejch\xba\x83\xdd?'
p70
tp71
Rp72
ag8
(g12
S'\x99tj\x1e\xe4\xae\xcf?'
p73
tp74
Rp75
asa(lp76
g20
ag33
ag46
ag59
ag72
aa(lp77
g23
ag36
ag49
ag62
ag75
aaF65019.2325630188
as.