(dp0
S'cs'
p1
(lp2
(dp3
I0
(lp4
(lp5
(lp6
I89
aF0.5228947541073846
aF0.460374716774128
aa(lp7
F0.5
acnumpy.core.multiarray
scalar
p8
(cnumpy
dtype
p9
(S'f8'
p10
I0
I1
tp11
Rp12
(I3
S'<'
p13
NNNI-1
I-1
I0
tp14
bS'4H\x834H\x83\xe4?'
p15
tp16
Rp17
aaaF7711.550457000732
ag8
(g12
S'\xb7m\xdb\xb6m\xdb\xe1?'
p18
tp19
Rp20
asI1
(lp21
(lp22
(lp23
F120.1
aF0.29966147154114925
aF0.8889754174900892
aa(lp24
F0.75
ag8
(g12
S'"\xce\xcaO\x88\xb3\xe2?'
p25
tp26
Rp27
aaaF7554.562304973602
ag8
(g12
S'\x93\xdb\xf3\xfbSq\xe0?'
p28
tp29
Rp30
asI2
(lp31
(lp32
(lp33
I129
aF0.2725793001763192
aF0.997100181804948
aa(lp34
F0.75
ag8
(g12
S'\x1d\xc7q\x1c\xc7q\xe4?'
p35
tp36
Rp37
aaaF6978.088127851486
ag8
(g12
S'k\xff\x06\xac\xef\xc3\xe0?'
p38
tp39
Rp40
asI3
(lp41
(lp42
(lp43
I150
aF0.9818874305119129
aF0.9397372448265949
aa(lp44
F0.75
ag8
(g12
S'\xd4\xbflm\xba\x04\xdb?'
p45
tp46
Rp47
aaaF7897.849547147751
ag8
(g12
S"c\x9bQk '\xd9?"
p48
tp49
Rp50
asI4
(lp51
(lp52
(lp53
I137
aF0.6637192867430921
aF0.753669429657096
aa(lp54
F0.75
ag8
(g12
S'\xe4Z!\xc8\xb0$\xdc?'
p55
tp56
Rp57
aaaF7523.143872976303
ag8
(g12
S'\x9c\xe5Id\x1a\xb6\xdb?'
p58
tp59
Rp60
asa(lp61
g20
ag30
ag40
ag50
ag60
aaF37665.38827300072
as.