(dp0
S'SE0'
p1
(lp2
(dp3
I0
(lp4
(lp5
(lp6
I75
aF0.2870935819735936
aF0.04040618049657823
aa(lp7
I0
acnumpy.core.multiarray
scalar
p8
(cnumpy
dtype
p9
(S'f8'
p10
I0
I1
tp11
Rp12
(I3
S'<'
p13
NNNI-1
I-1
I0
tp14
bS'\xd0\xf6\xf7\xd8\x1d\xda\xee?'
p15
tp16
Rp17
aaaF872.0785429477692
ag8
(g12
S'\x17]t\xd1E\x17\xed?'
p18
tp19
Rp20
ag8
(g12
S'@\x90\xee1\xab\xb8\xed?'
p21
tp22
Rp23
asI1
(lp24
(lp25
(lp26
I98
aF0.18562093400357965
aF0.07159120169172299
aa(lp27
I0
ag8
(g12
S'\xe3g\x94\xf8\x19%\xee?'
p28
tp29
Rp30
aaaF1031.7064280509949
ag8
(g12
S'\x1b\xc7q\x1c\xc7q\xec?'
p31
tp32
Rp33
ag8
(g12
S'\xdep&Y+#\xed?'
p34
tp35
Rp36
asI2
(lp37
(lp38
(lp39
I84
aF0.35596174861188346
aF0.43761634432438024
aa(lp40
I0
ag8
(g12
S'\xbe^Xw\x05\n\xed?'
p41
tp42
Rp43
aaaF947.6135308742523
ag8
(g12
S'\xb5\xb8\t\xf3\xbbZ\xec?'
p44
tp45
Rp46
ag8
(g12
S'@\x90\xee1\xab\xb8\xed?'
p47
tp48
Rp49
asI3
(lp50
(lp51
(lp52
I112
aF0.17697569391460438
aF0.6120643856477015
aa(lp53
I0
ag8
(g12
S'\xae\x89@\xae\x89@\xee?'
p54
tp55
Rp56
aaaF909.0432848930359
ag8
(g12
S'\xbd\xe9Moz\xd3\xeb?'
p57
tp58
Rp59
ag8
(g12
S',X\xea\xd3\n\x96\xea?'
p60
tp61
Rp62
asI4
(lp63
(lp64
(lp65
F81.2
aF0.1229828525637856
aF0.01
aa(lp66
I0
ag8
(g12
S'i\xf0\x9b\xe8\xe9\xdc\xee?'
p67
tp68
Rp69
aaaF941.139683008194
ag8
(g12
S'\xc1\xab\xc5M\x98\xdf\xed?'
p70
tp71
Rp72
ag8
(g12
S'd\xfe^\x1b\xb1.\xed?'
p73
tp74
Rp75
asa(lp76
g20
ag33
ag46
ag59
ag72
aa(lp77
g23
ag36
ag49
ag62
ag75
aaF4701.713350057602
as.