(dp0
S'cs'
p1
(lp2
(dp3
I0
(lp4
(lp5
(lp6
I85
aF0.6213181437425073
aF0.11204022065250765
aa(lp7
I0
acnumpy.core.multiarray
scalar
p8
(cnumpy
dtype
p9
(S'f8'
p10
I0
I1
tp11
Rp12
(I3
S'<'
p13
NNNI-1
I-1
I0
tp14
bS'\xba\x19\xb4\xecxN\xe5?'
p15
tp16
Rp17
aaaF2696.327483177185
ag8
(g12
S'"\xa9\xc1Q\xe0\x85\xe2?'
p18
tp19
Rp20
ag8
(g12
S'\x11\x8aP\x84"\x14\xe1?'
p21
tp22
Rp23
asI1
(lp24
(lp25
(lp26
I93
aF0.5777720903933111
aF0.4278804339197116
aa(lp27
I0
ag8
(g12
S'\r1 \x1dK\x99\xe4?'
p28
tp29
Rp30
aaaF2495.8758628368378
ag8
(g12
S'\x00\x00\x00\x00\x00\xd0\xe1?'
p31
tp32
Rp33
ag8
(g12
S'\xe9\xf1\x12\x97\xa7\xe9\xe1?'
p34
tp35
Rp36
asI2
(lp37
(lp38
(lp39
I87
aF0.824067319675593
aF0.9762946628361151
aa(lp40
I0
ag8
(g12
S'\xdad\x93M6\xd9\xe4?'
p41
tp42
Rp43
aaaF2909.899470806122
ag8
(g12
S'PW\xd4\x15uE\xdd?'
p44
tp45
Rp46
ag8
(g12
S'\x8a\xda\x95\xa8]\x89\xe2?'
p47
tp48
Rp49
asI3
(lp50
(lp51
(lp52
I138
aF0.25435203549873747
aF0.28643628107973645
aa(lp53
I0
ag8
(g12
S'\x02\x0e\xcd\xe7\xfa\xe3\xe5?'
p54
tp55
Rp56
aaaF2939.1449439525604
ag8
(g12
S'ix}\xd4F\xc2\xe0?'
p57
tp58
Rp59
ag8
(g12
S'\r\xc5\xfcSx\xc7\xdd?'
p60
tp61
Rp62
asI4
(lp63
(lp64
(lp65
F109.5
aF0.1
aF0.5182344632958833
aa(lp66
I0
ag8
(g12
S'6eMYS\xd6\xe4?'
p67
tp68
Rp69
aaaF2697.7420320510864
ag8
(g12
S'5\xc1x+\xfb\x1c\xe2?'
p70
tp71
Rp72
ag8
(g12
S'\n#D\xf6%\x1f\xe0?'
p73
tp74
Rp75
asa(lp76
g20
ag33
ag46
ag59
ag72
aa(lp77
g23
ag36
ag49
ag62
ag75
aaF13739.187494039536
as.