(dp0
S'diy'
p1
(lp2
(dp3
I0
(lp4
(lp5
(lp6
I128
aF0.920404502556482
aF0.054918292886379914
aa(lp7
I0
acnumpy.core.multiarray
scalar
p8
(cnumpy
dtype
p9
(S'f8'
p10
I0
I1
tp11
Rp12
(I3
S'<'
p13
NNNI-1
I-1
I0
tp14
bS'\xf5\x83\x8e\n|q\xe5?'
p15
tp16
Rp17
aaaF4627.747576951981
ag8
(g12
S'\xc6N\xec\xc4N\xec\xe4?'
p18
tp19
Rp20
ag8
(g12
S'\xec\x88r\xe3\xf7\xf4\xd9?'
p21
tp22
Rp23
asI1
(lp24
(lp25
(lp26
I112
aF0.4169464518536934
aF0.19332699959491975
aa(lp27
I0
ag8
(g12
S'o7\xe5\xb0\xec\xcc\xe5?'
p28
tp29
Rp30
aaaF5241.600040197372
ag8
(g12
S'B\x15\xe8\xba\x8d`\xe3?'
p31
tp32
Rp33
ag8
(g12
S'\xcf\xfdy\x8f\n\xdd\xdf?'
p34
tp35
Rp36
asI2
(lp37
(lp38
(lp39
I108
aF0.7732021118653455
aF0.3239705864340738
aa(lp40
I0
ag8
(g12
S'ue]YW\xd6\xe5?'
p41
tp42
Rp43
aaaF5302.521005153656
ag8
(g12
S'\x80y\xc3$*\xc6\xe2?'
p44
tp45
Rp46
ag8
(g12
S'\x9f{7A\x1b\xfc\xdb?'
p47
tp48
Rp49
asI3
(lp50
(lp51
(lp52
I134
aF0.766135477202627
aF0.02714703613500683
aa(lp53
I0
ag8
(g12
S'\xfc\xb0H\x19x\xba\xe5?'
p54
tp55
Rp56
aaaF4873.5406539440155
ag8
(g12
S'\x14^H\x10\xaa\x0c\xe6?'
p57
tp58
Rp59
ag8
(g12
S'\x82\x11\x18\x81\x11\x18\xe1?'
p60
tp61
Rp62
asI4
(lp63
(lp64
(lp65
I130
aF0.20538905616483247
aF0.04600714813041713
aa(lp66
I0
ag8
(g12
S'nC\xab\x85\xa0\x1f\xe7?'
p67
tp68
Rp69
aaaF5169.948210954666
ag8
(g12
S'%I\x92$I\x92\xe4?'
p70
tp71
Rp72
ag8
(g12
S'y<\x1e\x8f\xc7\xe3\xe1?'
p73
tp74
Rp75
asa(lp76
g20
ag33
ag46
ag59
ag72
aa(lp77
g23
ag36
ag49
ag62
ag75
aaF25215.601714134216
as.