(dp0
S'photo'
p1
(lp2
(dp3
I0
(lp4
(lp5
(lp6
I145
aF0.3943578774949562
aF0.5615388129908747
aa(lp7
F1.0
acnumpy.core.multiarray
scalar
p8
(cnumpy
dtype
p9
(S'f8'
p10
I0
I1
tp11
Rp12
(I3
S'<'
p13
NNNI-1
I-1
I0
tp14
bS'hiiiii\xd9?'
p15
tp16
Rp17
aaaF10474.39441204071
ag8
(g12
S'f\x99\xf4\x8cH\x96\xd9?'
p18
tp19
Rp20
asI1
(lp21
(lp22
(lp23
I132
aF0.7830396250333493
aF0.7363455987935092
aa(lp24
F1.0
ag8
(g12
S'\xbdOq\xc9\x10\xac\xd3?'
p25
tp26
Rp27
aaaF8944.273241996765
ag8
(g12
S'T\xa0\xd6\xaf\x14\xa8\xd5?'
p28
tp29
Rp30
asI2
(lp31
(lp32
(lp33
I148
aF0.7328110811481445
aF0.8440423168167064
aa(lp34
F0.75
ag8
(g12
S'\x88s\xb6:\xd22\xdd?'
p35
tp36
Rp37
aaaF10382.123938083649
ag8
(g12
S'u\x18e*\x9ek\xd6?'
p38
tp39
Rp40
asI3
(lp41
(lp42
(lp43
I102
aF0.13866232513545884
aF0.8483736214096389
aa(lp44
F0.75
ag8
(g12
S'B\x01\x1d\x9b\xef\x86\xdf?'
p45
tp46
Rp47
aaaF9036.484382867813
ag8
(g12
S'9E\xb7\x9f}`\xdb?'
p48
tp49
Rp50
asI4
(lp51
(lp52
(lp53
I126
aF0.4263511278353652
aF0.7065989561396058
aa(lp54
F0.75
ag8
(g12
S'\xa9\xefl\xd4w6\xde?'
p55
tp56
Rp57
aaaF9024.722458839417
ag8
(g12
S'c=i\xb4\x10\xf8\xd6?'
p58
tp59
Rp60
asa(lp61
g20
ag30
ag40
ag50
ag60
aaF47862.21007800102
as.