(dp0
S'SE1'
p1
(lp2
(dp3
I0
(lp4
(lp5
(lp6
I90
aF0.19938501164789546
aF0.4822167799502225
aa(lp7
I0
acnumpy.core.multiarray
scalar
p8
(cnumpy
dtype
p9
(S'f8'
p10
I0
I1
tp11
Rp12
(I3
S'<'
p13
NNNI-1
I-1
I0
tp14
bS'g\xecZJ0\xeb\xec?'
p15
tp16
Rp17
aaaF10200.790727853775
ag8
(g12
S'\x01\x00\x00\x00\x00p\xec?'
p18
tp19
Rp20
ag8
(g12
S'\xe7\xb6\x9a\xc8\x0c\xfd\xec?'
p21
tp22
Rp23
asI1
(lp24
(lp25
(lp26
F135.368
aF0.1
aF0.11613988479347903
aa(lp27
I0
ag8
(g12
S'$\x1d6\xd2a#\xed?'
p28
tp29
Rp30
aaaF11315.551285028458
ag8
(g12
S'\xfb_\xf9\xec\xcfh\xed?'
p31
tp32
Rp33
ag8
(g12
S'\x8b\x96\xe7]\x13\x95\xec?'
p34
tp35
Rp36
asI2
(lp37
(lp38
(lp39
I115
aF0.4933695250380543
aF0.12686596019352092
aa(lp40
I0
ag8
(g12
S'\xca\xcb%/\x97\xbc\xec?'
p41
tp42
Rp43
aaaF11849.377502918243
ag8
(g12
S'\xbe$\xa6\xbc$\xa6\xec?'
p44
tp45
Rp46
ag8
(g12
S'\xd7|\x11d\xae\xd7\xec?'
p47
tp48
Rp49
asI3
(lp50
(lp51
(lp52
I118
aF0.4032590892362853
aF0.7209694287405621
aa(lp53
I0
ag8
(g12
S'\xaa\x8egS\xca\xae\xec?'
p54
tp55
Rp56
aaaF11292.860017061234
ag8
(g12
S'\x1a9i\xe4\xa4\x91\xeb?'
p57
tp58
Rp59
ag8
(g12
S'\xca_\x1f^\x1aO\xed?'
p60
tp61
Rp62
asI4
(lp63
(lp64
(lp65
I123
aF0.2521303706361163
aF0.05083692239519151
aa(lp66
I0
ag8
(g12
S'A\x87O\xafb\x06\xed?'
p67
tp68
Rp69
aaaF10943.51471400261
ag8
(g12
S'\xbdg\x12\xbdg\x12\xed?'
p70
tp71
Rp72
ag8
(g12
S'\xb2^\xf6\xf30}\xec?'
p73
tp74
Rp75
asa(lp76
g20
ag33
ag46
ag59
ag72
aa(lp77
g23
ag36
ag49
ag62
ag75
aaF55602.753308057785
as.