(dp0
S'SE0'
p1
(lp2
(dp3
I0
(lp4
(lp5
(lp6
I78
aF0.7602710954605432
aF0.7648532511684383
aa(lp7
F1.0
acnumpy.core.multiarray
scalar
p8
(cnumpy
dtype
p9
(S'f8'
p10
I0
I1
tp11
Rp12
(I3
S'<'
p13
NNNI-1
I-1
I0
tp14
bS'\xf2\xa8KA\x07\x8f\xea?'
p15
tp16
Rp17
aaaF3137.095813035965
ag8
(g12
S'E\x99\x0bj\x80q\xeb?'
p18
tp19
Rp20
asI1
(lp21
(lp22
(lp23
I131
aF0.44252353158469493
aF0.075156099819646
aa(lp24
F0.75
ag8
(g12
S'\xca\x93\xc84l7\xeb?'
p25
tp26
Rp27
aaaF3420.6104509830475
ag8
(g12
S'\xa5\xf6\x16\x99\xfc\x93\xea?'
p28
tp29
Rp30
asI2
(lp31
(lp32
(lp33
F88.6
aF0.10297693079436032
aF0.4283415564958784
aa(lp34
F0.75
ag8
(g12
S'\x0bG\xe6\x04<\x9f\xee?'
p35
tp36
Rp37
aaaF3788.480891942978
ag8
(g12
S'\xc1\xab\xc5M\x98\xdf\xed?'
p38
tp39
Rp40
asI3
(lp41
(lp42
(lp43
I150
aF0.2614271967114924
aF0.9030979265048535
aa(lp44
F1.0
ag8
(g12
S'\x92$I\x92$I\xea?'
p45
tp46
Rp47
aaaF3631.5800909996033
ag8
(g12
S'\xb1\x13;\xb1\x13;\xed?'
p48
tp49
Rp50
asI4
(lp51
(lp52
(lp53
I121
aF0.5693682460470674
aF0.8218853954627423
aa(lp54
F1.0
ag8
(g12
S'n4u~\xed!\xe7?'
p55
tp56
Rp57
aaaF3465.8656208515167
ag8
(g12
S'\xdd2n\x19\xb7\x8c\xeb?'
p58
tp59
Rp60
asa(lp61
g20
ag30
ag40
ag50
ag60
aaF17443.697834968567
as.