(dp0
S'SE1'
p1
(lp2
(dp3
I0
(lp4
(lp5
(lp6
I90
aF0.19938501164789546
aF0.4822167799502225
aa(lp7
F0.75
acnumpy.core.multiarray
scalar
p8
(cnumpy
dtype
p9
(S'f8'
p10
I0
I1
tp11
Rp12
(I3
S'<'
p13
NNNI-1
I-1
I0
tp14
bS'\x17]t\xd1E\x17\xed?'
p15
tp16
Rp17
aaaF27303.478201150894
ag8
(g12
S'\x8d\xbe\xf2\xcf\x91\x10\xec?'
p18
tp19
Rp20
asI1
(lp21
(lp22
(lp23
I93
aF0.15325938518565918
aF0.7350936502712501
aa(lp24
F0.75
ag8
(g12
S"\xec\xbc9\xe8'\x86\xec?"
p25
tp26
Rp27
aaaF26198.626716852188
ag8
(g12
S'\xac\xc6\xbd\xc0\xbfj\xec?'
p28
tp29
Rp30
asI2
(lp31
(lp32
(lp33
I78
aF0.1251751936103578
aF0.43424706815102393
aa(lp34
F0.75
ag8
(g12
S'\xfe*NH\xc9\xb3\xec?'
p35
tp36
Rp37
aaaF27950.70831990242
ag8
(g12
S'2f\xcd\x978V\xed?'
p38
tp39
Rp40
asI3
(lp41
(lp42
(lp43
I144
aF0.11292818953754573
aF0.1731524008990326
aa(lp44
F0.75
ag8
(g12
S'\x96\xdb\xf9#\xe4\x10\xed?'
p45
tp46
Rp47
aaaF25182.636461019516
ag8
(g12
S'\xbf\xf6\x17kXM\xec?'
p48
tp49
Rp50
asI4
(lp51
(lp52
(lp53
I70
aF0.6026482805010416
aF0.6506613161218172
aa(lp54
F0.75
ag8
(g12
S'=<<<<<\xec?'
p55
tp56
Rp57
aaaF24928.82283091545
ag8
(g12
S'\xb9\xe1\xb1_\xa4v\xeb?'
p58
tp59
Rp60
asa(lp61
g20
ag30
ag40
ag50
ag60
aaF131564.7270948887
as.