(dp0
S'rpg'
p1
(lp2
(dp3
I0
(lp4
(lp5
(lp6
I139
aF0.23895973417989835
aF0.8752770766923749
aa(lp7
F0.75
acnumpy.core.multiarray
scalar
p8
(cnumpy
dtype
p9
(S'f8'
p10
I0
I1
tp11
Rp12
(I3
S'<'
p13
NNNI-1
I-1
I0
tp14
bS'\x00\x00\x00\x00\x00\x00\xd4?'
p15
tp16
Rp17
aaaF6846.719393968582
ag8
(g12
S'\xff\x89WE\xc9L\xd3?'
p18
tp19
Rp20
asI1
(lp21
(lp22
(lp23
F128.3
aF0.5954408505980529
aF0.9916928666336362
aa(lp24
F0.75
ag8
(g12
S'^u\x0e\x0b\x9fy\xd5?'
p25
tp26
Rp27
aaaF7260.958876132965
ag8
(g12
S'\xd2x\x9c\xf4j\x08\xd3?'
p28
tp29
Rp30
asI2
(lp31
(lp32
(lp33
F145.1
aF0.718035999915716
aF0.9283214802640409
aa(lp34
F0.75
ag8
(g12
S'0\x0c\xc30\x0c\xc3\xd4?'
p35
tp36
Rp37
aaaF7200.810341119766
ag8
(g12
S'\xc3\xa1\x1d\r\xcb\xc2\xd1?'
p38
tp39
Rp40
asI3
(lp41
(lp42
(lp43
F82.7
aF0.3046250853243862
aF0.9289187422594142
aa(lp44
F0.75
ag8
(g12
S'\xb7m\xdb\xb6m\xdb\xd6?'
p45
tp46
Rp47
aaaF6170.637305021286
ag8
(g12
S'w\xb3<\x89L\xc3\xd2?'
p48
tp49
Rp50
asI4
(lp51
(lp52
(lp53
I70
aF0.448829835469857
aF0.7481560700301431
aa(lp54
F0.75
ag8
(g12
S"\xdf\xac'\xca6\xda\xd7?"
p55
tp56
Rp57
aaaF6270.791911125183
ag8
(g12
S'\x8e+\x85\x07h\xf4\xd4?'
p58
tp59
Rp60
asa(lp61
g20
ag30
ag40
ag50
ag60
aaF33750.078605890274
as.