(dp0
S'diy'
p1
(lp2
(dp3
I0
(lp4
(lp5
(lp6
I73
aF0.9587989910349364
aF0.12021876371928183
aa(lp7
F0.5
acnumpy.core.multiarray
scalar
p8
(cnumpy
dtype
p9
(S'f8'
p10
I0
I1
tp11
Rp12
(I3
S'<'
p13
NNNI-1
I-1
I0
tp14
bS'u\xd7\xfet\xd7\xfe\xe4?'
p15
tp16
Rp17
aaaF11980.725681781769
ag8
(g12
S'\xb7.\xef\x80#E\xe3?'
p18
tp19
Rp20
asI1
(lp21
(lp22
(lp23
F97.1
aF0.6521561781404386
aF0.7976135335091714
aa(lp24
F0.75
ag8
(g12
S'*x9\x05/\xa7\xe0?'
p25
tp26
Rp27
aaaF11475.269180059433
ag8
(g12
S'\x05\xe6\x84\x08\xcc\t\xe1?'
p28
tp29
Rp30
asI2
(lp31
(lp32
(lp33
I95
aF0.3404983553691791
aF0.9632447143235703
aa(lp34
F0.75
ag8
(g12
S'!9\xcd\xd7\xea\xd9\xe1?'
p35
tp36
Rp37
aaaF11238.82038283348
ag8
(g12
S'\x08\xc6[\xd9\xe7\x90\xda?'
p38
tp39
Rp40
asI3
(lp41
(lp42
(lp43
I70
aF0.31979110732187876
aF0.01
aa(lp44
F0.5
ag8
(g12
S'\x80\x969\xf9-\x91\xe4?'
p45
tp46
Rp47
aaaF11299.225255012512
ag8
(g12
S'#\x90\xbe\xdbE\xf6\xe1?'
p48
tp49
Rp50
asI4
(lp51
(lp52
(lp53
I82
aF0.4147610136843711
aF0.7421218273836252
aa(lp54
F0.75
ag8
(g12
S'\x1bQ`\xd2\xa9y\xe0?'
p55
tp56
Rp57
aaaF11905.667557954788
ag8
(g12
S'|\xe0\x07~\xe0\x07\xde?'
p58
tp59
Rp60
asa(lp61
g20
ag30
ag40
ag50
ag60
aaF57900.026175022125
as.