(dp0
S'SE3'
p1
(lp2
(dp3
I0
(lp4
(lp5
(lp6
I70
aF0.13813847223688946
aF0.21701192217848606
aa(lp7
F0.5
acnumpy.core.multiarray
scalar
p8
(cnumpy
dtype
p9
(S'f8'
p10
I0
I1
tp11
Rp12
(I3
S'<'
p13
NNNI-1
I-1
I0
tp14
bS'\xc9\xb2\xd3\xab\xf9\xf3\xe5?'
p15
tp16
Rp17
aaaF41407.026415109634
ag8
(g12
S'\x852\xe8\xbe\x19\x85\xe2?'
p18
tp19
Rp20
asI1
(lp21
(lp22
(lp23
I98
aF0.13082947598095568
aF0.1628801260834368
aa(lp24
F0.5
ag8
(g12
S'\x95RJ)\xa5\x94\xe2?'
p25
tp26
Rp27
aaaF44595.179894924164
ag8
(g12
S'\xbd\xc4\xa1\xde\xc2Z\xe4?'
p28
tp29
Rp30
asI2
(lp31
(lp32
(lp33
I88
aF0.19288253600730992
aF0.3968217203306359
aa(lp34
F0.5
ag8
(g12
S'4\x89\xde3\x89\xde\xe3?'
p35
tp36
Rp37
aaaF41015.920333862305
ag8
(g12
S'\xf2\x1d"W\x8fh\xe2?'
p38
tp39
Rp40
asI3
(lp41
(lp42
(lp43
I142
aF0.1782542700439075
aF0.3876940697671911
aa(lp44
F0.5
ag8
(g12
S'\xf7\x84=aO\xd8\xe3?'
p45
tp46
Rp47
aaaF50464.95137786865
ag8
(g12
S'?\x0c4\x1d|\xcf\xe1?'
p48
tp49
Rp50
asI4
(lp51
(lp52
(lp53
F84.6
aF0.1
aF0.6928156232433258
aa(lp54
F0.5
ag8
(g12
S'\x08k\x1d\xf9B]\xe3?'
p55
tp56
Rp57
aaaF46773.06222009659
ag8
(g12
S'SI\x01\t?\xb9\xd8?'
p58
tp59
Rp60
asa(lp61
g20
ag30
ag40
ag50
ag60
aaF224256.90544080734
as.