(dp0
S'SE6'
p1
(lp2
(dp3
I0
(lp4
(lp5
(lp6
I100
aF0.19297542703277382
aF0.6702608974014973
aa(lp7
F0.75
acnumpy.core.multiarray
scalar
p8
(cnumpy
dtype
p9
(S'f8'
p10
I0
I1
tp11
Rp12
(I3
S'<'
p13
NNNI-1
I-1
I0
tp14
bS'w=\x13\xa4\xd3\x0c\xe8?'
p15
tp16
Rp17
aaaF8376.640879154205
ag8
(g12
S'\xe4\x01"d\n\xbb\xe6?'
p18
tp19
Rp20
asI1
(lp21
(lp22
(lp23
F85.0
aF0.1
aF0.27501088066217466
aa(lp24
F0.75
ag8
(g12
S'\x8c.\xba\xe8\xa2\x8b\xe8?'
p25
tp26
Rp27
aaaF9991.221119880676
ag8
(g12
S'\xbe\xe9Moz\xd3\xeb?'
p28
tp29
Rp30
asI2
(lp31
(lp32
(lp33
I121
aF0.16973580786361472
aF0.5706568376741179
aa(lp34
F0.75
ag8
(g12
S'i\x84\xe5\x9eFX\xe4?'
p35
tp36
Rp37
aaaF8758.78611779213
ag8
(g12
S'\xb8m\xdb\xb6m\xdb\xe6?'
p38
tp39
Rp40
asI3
(lp41
(lp42
(lp43
I103
aF0.33886952472633536
aF0.9855811127297843
aa(lp44
F0.75
ag8
(g12
S'\xc0\x1dV\xde\xfc\xdb\xe1?'
p45
tp46
Rp47
aaaF8705.782521009445
ag8
(g12
S'\x00\x00\x00\x00\x00\x00\xe4?'
p48
tp49
Rp50
asI4
(lp51
(lp52
(lp53
F124.9
aF0.1
aI1
aa(lp54
F1.0
ag8
(g12
S'\xf9\xe0\x83\x0f>\xf8\xe0?'
p55
tp56
Rp57
aaaF9996.39310002327
ag8
(g12
S'\xeb\x1c\x16>\xf3\xaa\xe3?'
p58
tp59
Rp60
asa(lp61
g20
ag30
ag40
ag50
ag60
aaF45828.950165987015
as.