(dp0
S'rpg'
p1
(lp2
(dp3
I0
(lp4
(lp5
(lp6
I90
aF0.5179690671370292
aF0.8366474469274221
aa(lp7
F0.75
aI0
aaF7930.492820978165
aa(lp8
(lp9
F1.2491455056118803
aF1.009751689562451
aF0.7697184543710027
aF0.27058165086817343
aF0.5048509095390212
aF0.1790939207104049
aF1.7367923477412661
aF1.5533776798612062
aF0.4715619356791326
aF0.6219715912708395
aF0.6502621598765249
aF1.493690533584417
aF0.8582034601508779
aF1.4514520635672847
aF1.0475737467351267
aF1.8590513059733749
aF1.6904277134101222
aF1.7840387272398162
aF0.23354594476628332
aF0.9698155964910863
aF0.5517836956131718
aF1.8556621900486812
aF0.5186502303985894
aF1.7429129762326214
aF1.7666767467277502
aF1.3302804532739358
aF1.134077923015245
aF1.5057693357541653
aF1.7185381981098167
aF1.186301280665481
aF1.6917021264200063
aF1.062032545831431
aF1.9661159261436583
aF1.5589033345015977
aF1.6362667690221593
aF1.1991474874682488
aF0.3818544023725515
aF0.7555636828708466
aF0.5807918868692754
aF0.38695469163818785
aF0.42499036277374913
aF0.6197429660335348
aF1.5104332481941658
aF0.8497099565472495
aF1.2688980774034857
aF1.0251711196697628
aF1.2900347497103113
aF1.415553858800783
aF1.2318281633376278
aF1.6818611788268272
aF1.3001813264867799
aF0.8063682772139844
aF1.3174081957431214
aF0.7184493410993952
aF0.8345100369630415
aF1.4823329184213432
aF1.3565539048471287
aF1.947667952958157
aF0.7228549813119216
aF1.0573718019093064
aF0.20174310566677064
aF0.8711929149235389
aF1.819234119250125
aF1.2112555293219427
aF0.6565964772491824
aF1.4957544862942216
aF0.9151712363416625
aF1.0695760742674634
aF0.8354744837205701
aF0.4892130329422669
aF1.2868788160044384
aF1.572689279203872
aF1.400357239745672
aF0.8068932061814055
aF0.7200204633269717
aF0.1017699432395492
aF1.9295305066978397
aF1.4525390706936134
aF0.1592295541981307
aF1.2144647360743985
aF0.9620281459415021
aF0.6849477013498306
aF1.6733499836806374
aF0.20585715526796786
aF1.3094475487057105
aF0.6167380907497706
aF0.657556640864855
aF0.20542235276327495
aF0.19999798857137627
aF1.256544282812698
aa(lp10
cnumpy.core.multiarray
scalar
p11
(cnumpy
dtype
p12
(S'f8'
p13
I0
I1
tp14
Rp15
(I3
S'<'
p16
NNNI-1
I-1
I0
tp17
bS'\xe0Ex\x11^\x84\xd7?'
p18
tp19
Rp20
aI0
aaF298.7795341014862
aa(g11
(g15
S'\xf6\x84=aO\xd8\xd3?'
p21
tp22
Rp23
I0
tp24
a(g11
(g15
S'r\xe2ki2\xbb\xd4?'
p25
tp26
Rp27
I0
tp28
asI1
(lp29
(lp30
(lp31
I109
aF0.2553420531687556
aF0.6720557405810819
aa(lp32
F0.75
aI0
aaF6870.360176086426
aa(lp33
(lp34
F0.1467929619784542
aF1.2241760221033442
aF1.5150271572298732
aF0.8956742065470308
aF0.7721880780804713
aF1.2193036725675748
aF1.5825591037077114
aF0.40140183301318555
aF1.3580732640602164
aF0.314736186943365
aF1.9442079798251835
aF0.24123399539500373
aF1.6209488002152774
aF0.6836404330653378
aF0.6811555279297357
aF0.6802750771042405
aF1.7359849070679756
aF1.215015432466658
aF1.5264673422569177
aF0.19175862145090802
aF1.511021836003398
aF0.2684333229002709
aF1.7177756025516242
aF0.4776153334861185
aF0.6662988654976891
aF1.8913283169812758
aF1.2187423065105316
aF1.9281265377414931
aF0.9568690982074609
aF0.9123236434610859
aF1.248275026679163
aF0.4344728078524105
aF1.667513717704933
aF0.29041309471414767
aF1.389446153376086
aF0.4276537730452974
aF1.725839810761679
aF1.5520412113382245
aF1.0061904619212139
aF0.30399142792675937
aF1.0892798495742737
aF1.5484412856161907
aF0.6790777560163214
aF0.31267040254275275
aF0.9383799742316256
aF0.4771738662749275
aF0.9756367685777844
aF0.9692582585271311
aF0.2299796197302722
aF1.584408556983036
aF0.8819481874057509
aF1.7196308212380444
aF1.629729859568865
aF0.41325708193909516
aF1.3869951177432027
aF1.6699090169735655
aF0.6962716539175621
aF0.7018325541675796
aF0.7697609107307414
aF1.7963211074454382
aF0.6537421654773455
aF1.9098759953588655
aF0.38731735126308975
aF0.5287842821584048
aF1.6193290508096656
aF1.6507363212779964
aF1.0013218065895364
aF1.7049024087650901
aF1.9639078214312962
aF1.944659948438989
aF0.29632309821768615
aF0.4761428052845982
aF1.9168558626740115
aF1.2200257633593259
aF0.769993107930549
aF1.9483579463508434
aF1.4222469832741709
aF0.5265823394411492
aF0.8909275152696692
aF0.6402511228593062
aF1.7675021122636607
aF1.435905721198615
aF0.19879244247702182
aF0.4005122765697865
aF0.5577690246986802
aF0.6444502836388804
aF1.6849110290378986
aF1.6315154962203824
aF1.498741523480404
aF1.1028973122349761
aF1.8018014423566429
aF1.7035209743466178
aF0.5411035718288402
aF0.5342855396226254
aF1.2839604317916755
aF0.5022417433435731
aF1.5127828977729185
aF0.22034864556123765
aF0.15823355720897428
aF1.169280287009201
aF1.9158303778051635
aF1.3484031974905097
aF1.2419307785164657
aF1.0713466726538419
aF1.258576539634261
aF0.37187492454198745
aF1.3896565998115442
aF0.9601121208072575
aF1.2083483487134652
aa(lp35
g11
(g15
S'\x17wq\x17wq\xd7?'
p36
tp37
Rp38
aI0
aaF348.1602690219879
aa(g11
(g15
S'\x7f\xe9\xebd\xecI\xd4?'
p39
tp40
Rp41
I0
tp42
a(g11
(g15
S'`%\xd35\x8c$\xd4?'
p43
tp44
Rp45
I0
tp46
asI2
(lp47
(lp48
(lp49
F143.29
aF0.4292815992825334
aF0.8790107055033275
aa(lp50
F1.0
aI0
aaF7705.911442995071
aa(lp51
(lp52
F0.8650815781858556
aI2
aF0.25005995665018976
aF1.5267216347560928
aF1.4068577097678565
aF0.1482096041628605
aF0.12405732717866881
aF0.3352166762379849
aF1.8398224145876243
aF1.834597566513162
aF0.1
aF0.1
aF1.1627651732571165
aF1.5636595526634411
aF1.082778436329447
aF0.1
aF1.2347703690213476
aF1.3436419435989742
aF0.9633947518828023
aF1.8176768081760388
aF0.8217807783825024
aF1.1897446216794987
aF1.3329661152033674
aF1.8053792832275946
aF1.0097219541564237
aI2
aF1.5823907156522339
aF0.3921285381617405
aF1.6881296438571778
aF0.7008558597850956
aF1.5629351754647267
aF0.1
aF1.4230517985645463
aF1.868393552815925
aF0.27685938537608096
aF0.968691067013475
aF0.1
aF0.6293432279166249
aF1.916935527141716
aF1.548462327576101
aF0.8374143621828201
aF1.5296748533010622
aF1.273661029410532
aF0.7320084847969005
aF1.4685002250662598
aF0.6108017338152152
aF0.8146465543005279
aF1.0030368528267042
aF1.3856566692377559
aI2
aF0.7956580071011197
aF1.967518900910974
aF0.42263893212104486
aF1.6746963714769276
aF0.32147080456626975
aF0.35927477730048857
aF0.8937906570089361
aF1.7179892031858794
aF0.8775670587943641
aI2
aF0.6477338870700841
aF1.5835530685728634
aF1.7216755092836595
aF1.1188627887533904
aI2
aF0.12594161679474264
aF0.9386736532757383
aF1.4074167470689767
aF1.9008509485233405
aF0.1815509897179092
aF1.0320388049182112
aF1.0746034533733564
aF1.6663369982135745
aF1.310170051354259
aF1.8736129117515803
aF0.5492940471164742
aF1.094310025090972
aF0.42475689087063395
aF1.7677281235978526
aF0.13063293144837787
aF1.7236827667637051
aF1.3971481279905225
aF0.6733886478761705
aF0.47484501649875166
aF1.5524879116182027
aF0.4858033575074425
aF1.4413559818411967
aF0.7745602000231258
aF0.7952325145250575
aF0.48839498287404026
aF0.8856791918151059
aF1.2120918373241822
aI2
aF1.2124055510762561
aF1.5943194197292982
aF1.10284887764665
aF1.1528610275674858
aF1.715857098863868
aF1.8197038040198006
aF0.747228007697909
aF1.4727645762023036
aF0.19821674183667393
aF0.11879209120497583
aF1.4517545624408656
aF1.8615705831498293
aF0.8612677602303582
aF0.4606579637509883
aF1.8192038655976077
aF0.9167802425147069
aF0.1
aF0.6675774686241517
aF1.4220537246294376
aF1.33245996356246
aF0.9472983970637895
aF1.9560902716268593
aF0.39636822913385045
aF0.3983088057284986
aF1.7334525321003644
aF0.9349010990327835
aF0.3749644962391957
aF1.622794680654606
aI2
aF0.4085983094663197
aF1.232546984905942
aF0.9275413238882425
aF1.5645677498906267
aF0.7975404608511961
aI2
aI2
aF1.442934809973487
aF1.2397313905472194
aF0.6293019523775679
aF0.9715575618055422
aF0.7319647467015361
aF0.8593326745058069
aF1.301602729591223
aF0.8521829411785817
aF1.9516872118982738
aF0.5026787524273769
aF0.6629365673460624
aF0.1250356660882242
aF0.24201199111078275
aF0.5399751351278135
aa(lp53
g11
(g15
S'\xee\x82\xbf\x8a\x13R\xd2?'
p54
tp55
Rp56
aI0
aaF456.96733713150024
aa(g11
(g15
S'0\x9em]\xadr\xd4?'
p57
tp58
Rp59
I0
tp60
a(g11
(g15
S'\xa1\x87\xd0C\xe8!\xd4?'
p61
tp62
Rp63
I0
tp64
asI3
(lp65
(lp66
(lp67
F141.4
aF0.3121508701908954
aI1
aa(lp68
F1.0
aI0
aaF7762.584858894348
aa(lp69
(lp70
F1.4078234974164725
aF1.9016725796478835
aF1.772830094095931
aF0.8626581543596479
aF1.9041593426396128
aF1.5607985778457114
aF0.5526518859885688
aF0.753139708557186
aF0.3275561786421787
aF1.477351907649179
aF0.66964877374574
aF1.7044765047515509
aF1.0936533136383562
aF1.35805565900592
aF0.8530485274724021
aF1.3165397678304316
aF0.5718863613680395
aF1.0934714231330955
aF1.3324245762113973
aF0.624430803240484
aF1.7512473955916152
aF0.8667786525204114
aF1.8607485946301034
aF1.7075008845024848
aF0.30808653438542744
aF0.6864366802084859
aF0.7742509401674126
aF0.27335823647639723
aF0.6626646997798408
aF1.1105012972516133
aF0.6471474135621949
aF0.157610280178428
aF1.7126878941827501
aF0.45308765967277564
aF0.2500715672181668
aF0.4985915512034046
aF0.3190237517658439
aF0.9643079337993308
aF1.1518145503998154
aF0.2799867830796865
aF1.61211568330988
aF0.30639761135929244
aF1.9781380373652613
aF0.8503429645681698
aF0.8381266315644893
aF1.015538296113171
aF1.4933812563012212
aF1.0775989809035313
aF0.4943758838143203
aF1.4040330655916164
aF1.8970270291161442
aF1.861365367532293
aF0.9651304453871806
aF0.14445259292454268
aF1.9478140362190086
aF1.2225850361863853
aF0.25624917449546825
aF1.9121285515874429
aF1.8925921187890609
aF1.8826384395499174
aF0.49961390693384566
aF0.2711345683971208
aF1.1156892415833024
aF1.9431266821686117
aF1.4564719052255592
aF1.2725756930443184
aF0.5344503190984029
aF0.186587434075255
aF0.47331399780645866
aF1.1555506294611093
aF1.1573985453547984
aF0.8154405503797683
aF0.8171528766601036
aF0.7555601943193195
aF0.2454612470140953
aF0.4680259050315364
aF0.3907588791479846
aF1.2287528799386518
aF0.32920878874420956
aF0.1287945659982979
aF1.4930119591600102
aF1.5515791968107928
aF0.20972633883869335
aF1.8935803171366588
aF0.6918831686172107
aF1.7940432495318401
aF1.1228289930132889
aF1.2472230086815843
aF0.2036201332188191
aF1.7000794546717033
aF1.780439567701656
aF0.3027763892791244
aF1.2242469722896814
aF0.48574618153458937
aF0.7534595114629794
aF0.26324524540243466
aF0.38061806498645234
aF1.2734936053200177
aF1.9824393017736266
aF0.1892723084947349
aF1.568267651459645
aF1.0363102663021804
aF1.201766855420089
aF1.9404447641529152
aF1.810323600187936
aF1.5204871325441982
aF0.765025653598789
aF1.9259827735165937
aF0.11422187478642859
aF1.135076556444623
aF1.648522263128278
aF0.7244733378417383
aF0.20938794944993125
aF0.7559782179320251
aF1.745420833531625
aF1.8617108282263435
aF1.3401599351761664
aF0.17845091290686593
aF0.2495213674642398
aF0.5270839805454274
aF0.3883485319063217
aF1.9427782075863895
aF1.040691881271809
aF1.7683734619857452
aF0.157056963199982
aF1.124495371305647
aF0.10227724009930284
aF1.9385032980141452
aF0.6726918059578939
aF1.3640167786850752
aF1.1990044719454396
aF0.15328158518729865
aF1.8933622680609061
aF1.314301130590788
aF1.7376241426093821
aF1.4930386088218546
aF0.9581369414537895
aF1.548487133741666
aF1.4520753953666747
aF1.4053747158400145
aF1.6213773445697244
aa(lp71
g11
(g15
S'O\xc1\xcb)x9\xd5?'
p72
tp73
Rp74
aI0
aaF451.5591640472412
aa(g11
(g15
S'rZ\xedF\x1d8\xd6?'
p75
tp76
Rp77
I0
tp78
a(g11
(g15
S'\xf4\xda\x90\xb2\x17G\xd5?'
p79
tp80
Rp81
I0
tp82
asI4
(lp83
(lp84
(lp85
I80
aF0.23255384167709542
aF0.7461147356648858
aa(lp86
F0.75
aI0
aaF7563.355319976807
aa(lp87
(lp88
F1.1086799944087296
aF0.7974172929309568
aF0.1
aI2
aF1.7856633960824493
aF0.9622504871935278
aF1.7476333031606865
aF0.7909084350264817
aF1.8295623381142496
aF0.25098951661128355
aF1.3347519263536456
aF0.8033989478554611
aF1.3099290299469057
aF0.9534416234524634
aF0.8792585317208629
aF0.5643316187856731
aF0.1
aF1.9153059927002256
aF0.1
aF0.430567622621878
aF1.3881087506275354
aF0.49524184320031794
aF0.14266824419091526
aF1.4091618395108985
aF1.4976082075378396
aF0.1
aF0.1
aF1.6295306448731517
aF0.8045465430152228
aF1.504164814196918
aF1.1621835772899587
aF0.9077289096410535
aF0.433483548961648
aF1.269320466021132
aF1.186368322418715
aF0.44976809480917773
aF1.562061862238562
aF0.8918686556116928
aF0.1043483378555411
aF0.6007941633660167
aF1.2105706705115455
aF1.4678141439156973
aF0.5525186949352534
aF1.8015768946036466
aF1.5089913443147176
aF1.4332658885119702
aF0.8967627163393098
aF0.8856550057163546
aF1.126961180467784
aF1.8421457739617195
aF0.1
aF0.8599824611421439
aF1.5851793497571218
aF1.7020482999539999
aF1.5860119416329876
aI2
aF0.5161253854054899
aF1.0260207086678146
aF0.30647873875148934
aF1.2772842513662201
aF0.31361244791743664
aF1.242626479610475
aF1.3492732472842492
aF1.5387072663327463
aF0.4433319214169943
aF1.9097125487840427
aF1.3616317403385803
aF0.1
aF0.8640018161350023
aF1.838465077671021
aF0.9273144798259078
aF0.9050495526941377
aF1.086131290078403
aF0.22141979136628245
aF0.5367061619807669
aI2
aF0.34729872760909497
aF0.8163322797252393
aF1.779622458435333
aF0.1
aa(lp89
g11
(g15
S'>]\xfd\xc7\xd9\xd3\xd5?'
p90
tp91
Rp92
aI0
aaF266.93831419944763
aa(g11
(g15
S'\x0c\xfc\xcd\xdb\x8a\x89\xd3?'
p93
tp94
Rp95
I0
tp96
a(g11
(g15
S'\x96\x91\xa3\xc5\xddN\xd4?'
p97
tp98
Rp99
I0
tp100
asa(lp101
g24
ag42
ag60
ag78
ag96
aa(lp102
g28
ag46
ag64
ag82
ag100
aaF39655.47125291824
as.