(dp0
S'photo'
p1
(lp2
(dp3
I0
(lp4
(lp5
(lp6
I150
aF0.43865127825436984
aF0.5391831997149359
aa(lp7
F0.75
aI0
aaF7060.701014041901
aa(lp8
(lp9
F1.8327828586672434
aF1.1173377953229504
aF1.870694191121496
aF0.8328410671130277
aF0.12183428866225783
aF0.6319195009077894
aF1.1811126243609318
aF1.4521205986259347
aF0.8683111145164033
aF0.8406299663645279
aF0.7322205972768394
aF1.5430032851840074
aF1.0025607029222101
aF0.24745942799570325
aF0.4154505040887966
aF0.21285371472804182
aF0.9913411942816748
aF1.7565452275895792
aF0.5053849896697086
aF0.6592732735027259
aF1.2205863836921311
aF1.2591087153087182
aF1.4874035406588606
aF0.913031384883225
aF1.3219945393497465
aF1.4120365446550647
aF1.1554254404425317
aF1.210184499527412
aF0.6677773849101145
aF1.900364474592577
aF1.2621077169797421
aF0.2931252443286726
aF1.0159619497062087
aF1.642563947660534
aF0.6724590540450481
aF1.5754477152047248
aF0.7104148501049181
aF0.5151362812179943
aF1.6155320751562803
aF1.180257936306552
aF0.1537448519999163
aF0.3599391458570207
aF0.4890474091027913
aF1.5790122178794335
aF1.974602014498361
aF0.5260203338187591
aF1.3747700492056372
aF1.6072671589805148
aF0.4365064458286926
aF1.1113057153946075
aF1.48231161670169
aF1.839188241677678
aF0.3967217175268346
aF1.797245298696344
aF0.2521131305353487
aF0.957598024953648
aF0.41204237710302827
aF1.4139125899999219
aF0.23172429003918382
aF1.611636835171562
aF1.1692674790156896
aF0.1675636064841429
aF0.5129886589793045
aF0.9115970720956991
aF1.041531674371841
aF1.6189428901482699
aF0.19435152987339208
aF0.5040094756909729
aF1.6816747456862065
aF0.6022773830213873
aF1.4966748438122968
aF1.176749674869622
aF0.26978560456596057
aF0.11340993515943965
aF1.4200565462523305
aF1.659275267796399
aF0.3130447509799342
aF0.10162804230067202
aF1.932967239136156
aF0.19669793707221206
aF1.6226421138214426
aF1.2993402032641204
aF1.1632568471173241
aF0.9585112837927696
aF1.4672200942424838
aF0.9811000254841015
aF1.9773679291489472
aF1.3509826304842625
aF0.8166139426603932
aF0.6851881152734675
aF0.509092442378826
aF0.8518612878959332
aF0.21600007224103573
aF1.5004976785745368
aF0.18910921539310652
aF1.560200994394628
aF1.2374418902071012
aF0.18305527232577481
aF0.41779986980730577
aF0.9762478388890645
aF0.4381206412759511
aF1.8598519125907225
aF1.8688804488330446
aF0.9620839059901842
aF0.8849837194743185
aF1.4933149522632323
aF1.143602286898824
aF0.856916408952747
aF1.4248581479264857
aF0.7052461881967172
aF1.5398378835392152
aF1.907777813802698
aF0.671242129162123
aF1.1690927661759287
aF0.9769562517090353
aF1.7936596901912902
aF1.3413777566422473
aF1.1979287585499654
aF1.303066789315099
aF1.1451096702318648
aF0.9190497115411027
aF0.937737729876679
aF0.9694466773416511
aF1.7240708203908859
aF1.6278721906239726
aF0.5654384396015412
aF0.11262109019845595
aF0.8906120524189444
aF1.3179331761691706
aF0.5881612715129132
aF1.9571889125935262
aF1.09954546226791
aF1.275295038273762
aF1.1807801373080542
aF1.083338222348337
aF1.587363647012561
aF1.3682313517394413
aF1.4360161154577045
aF1.8905364667149476
aF0.6388100968595041
aF1.885713193212501
aF1.4394676049397948
aF0.14968394182566153
aF1.9258623390767138
aF0.39044248667387327
aF1.6552855246911051
aF1.1744893262540537
aF1.720574481989922
aF1.3582087199911077
aF0.8771369131134733
aa(lp10
cnumpy.core.multiarray
scalar
p11
(cnumpy
dtype
p12
(S'f8'
p13
I0
I1
tp14
Rp15
(I3
S'<'
p16
NNNI-1
I-1
I0
tp17
bS'\x89j\x9d}\x11\xd5\xda?'
p18
tp19
Rp20
aI0
aaF419.42943120002747
aa(g11
(g15
S')\x8a\xa2(\x8a\xa2\xd8?'
p21
tp22
Rp23
I0
tp24
a(g11
(g15
S'\xebe\x00\xd5#\xe2\xd8?'
p25
tp26
Rp27
I0
tp28
asI1
(lp29
(lp30
(lp31
I96
aF0.18342258601481015
aF0.23531520094575187
aa(lp32
F0.75
aI0
aaF6289.590966939926
aa(lp33
(lp34
F0.9196536997164227
aF0.1459968651810618
aF1.0343542343063126
aF0.8974602985093297
aF1.96531326868918
aF1.8387312053282334
aF1.260659652043941
aF0.6653530784656179
aF1.2044687371831557
aF0.20990669692831837
aF0.8344210976127899
aF0.6966845922025358
aF0.16048444578847415
aF1.9089558618448517
aF1.2205565711850856
aF1.2194268733944442
aF1.4091465973114858
aF1.7819862839493756
aF1.622143210300724
aF1.0913905898749376
aF0.6463271920845137
aF0.8768924714646829
aF1.5384114180312096
aF1.217584361339881
aF0.526265741634679
aF0.6998896348453609
aF1.437574980607414
aF1.3085557970920194
aF1.3138418437851802
aF1.4698797767540508
aF0.11210027916729332
aF0.9778906559868004
aF0.17402656511198006
aF0.49296286823596835
aF1.2841846609671452
aF0.3413682209302379
aF1.9351922358131717
aF1.8916175455901694
aF1.363012867036999
aF0.6277164917073326
aF1.9495200258977148
aF1.4374254421466284
aF0.5822317176726757
aF1.7692538025247717
aF1.2987568781346897
aF1.1901802625626614
aF1.4552239072639468
aF0.34641779711292897
aF0.8524390291351961
aF1.9940088620771315
aF1.6148640129725464
aF1.9332946714810433
aF0.17468241176256677
aF0.8748224784569513
aF0.9625584408865306
aF1.092009913307479
aF1.748122253575044
aF0.11557876330258077
aF1.030261252871009
aF0.1358318196528673
aF1.903382161282895
aF1.1073304037855112
aF0.8333405415078664
aF0.5460030343763006
aF0.32273192534990613
aF1.7944338263587492
aF1.487005276760431
aF0.9013138502462031
aF0.5939828699280227
aF1.704330919498609
aF0.4607241278558807
aF1.9587215187799507
aF0.904700292410437
aF0.7671063021919609
aF1.198089965731693
aF1.1347543680524352
aF1.5809556526279125
aF1.091611843034706
aF0.6364859647766956
aF1.3336611945664392
aF0.8363051821610303
aF0.9535770251268333
aF1.8580046599572173
aF0.9070447796863216
aF0.20625474792231305
aF0.2391195326790076
aF0.8991865755967893
aF0.5987639291329359
aF1.484487389455916
aF1.3305023677506902
aF1.2111421737507
aF0.5077420572966029
aF1.5555506332025582
aF0.6637644128613717
aF0.5574918934368268
aF0.9022507339962985
aa(lp35
g11
(g15
S'x\x91}L\xb1e\xde?'
p36
tp37
Rp38
aI0
aaF255.0660011768341
aa(g11
(g15
S'Qr\x02\x8b\xf1>\xdb?'
p39
tp40
Rp41
I0
tp42
a(g11
(g15
S'[\xe6=|\x8d@\xda?'
p43
tp44
Rp45
I0
tp46
asI2
(lp47
(lp48
(lp49
I80
aF0.9957506369703527
aF0.5487507858776431
aa(lp50
F0.75
aI0
aaF5564.9500341415405
aa(lp51
(lp52
F1.2086835679236736
aF0.35280619468168495
aF0.20218809623228728
aF1.662405832454303
aF1.9639344581948768
aF0.5264115128281592
aF0.22177687846908783
aF0.9054302374041031
aF1.5578757491763258
aF0.9382979591066984
aF0.19050993223853893
aF0.5882060537235073
aF0.23862513372441677
aF1.5720614667245483
aF1.9082614264301863
aF0.2685169992740121
aF1.7317493962380337
aF0.3709083054238388
aF0.13522781119043517
aF1.6414962459437772
aF0.7265302006779077
aF1.4187461997266517
aF1.4643678934268967
aF0.9435307392250691
aF1.2132813715704887
aF1.3527278688105158
aF1.8327376889786198
aF0.13291240184716974
aF1.9743397743398647
aF0.35272172042489713
aF1.2828006255691056
aF0.9302208146341573
aF0.5444250329294451
aF0.9913380111966583
aF0.3145853950855465
aF0.23161060079336368
aF0.3663138909246617
aF0.979900042344665
aF1.8120095474218028
aF1.6647930239189406
aF1.0789081116831092
aF0.5232869388798147
aF0.7864630571024542
aF0.23563407610308656
aF1.6360706424645837
aF1.8915594008097618
aF0.24054442677534876
aF0.9533098102473221
aF0.24627024640929907
aF1.9276955736829553
aF1.6754754553664426
aF0.4516985762557769
aF0.595612346087525
aF0.19999147912926474
aF0.7676756742300159
aF1.5424168274025867
aF1.5857234306943173
aF1.5111700505985695
aF1.423172007120896
aF1.3884262764453796
aF1.961554328418305
aF1.873748722916554
aF1.0063493740336753
aF0.5724742190123401
aF0.3877305136619704
aF1.0236741101310702
aF0.5288992652518595
aF1.9319645383716575
aF1.5187621763295165
aF0.679497528619087
aF1.4841899044774345
aF0.28183813612356456
aF1.8915395950032086
aF0.5791189256157361
aF0.5266936668264847
aF0.4374596258172124
aF0.7504627085818147
aF1.2237463474737862
aF1.745451815392608
aF1.089781283372859
aa(lp53
g11
(g15
S'\xe7\xb1\x15A\xc3I\xdd?'
p54
tp55
Rp56
aI0
aaF254.1749129295349
aa(g11
(g15
S'\xd7(\xd7(\xd7(\xd7?'
p57
tp58
Rp59
I0
tp60
a(g11
(g15
S'\xa7\x8b\xa1M\x8f\x93\xd8?'
p61
tp62
Rp63
I0
tp64
asI3
(lp65
(lp66
(lp67
F133.7
aF0.8020477463679092
aF0.754667085520129
aa(lp68
F1.0
aI0
aaF6451.952427148819
aa(lp69
(lp70
F1.9182983592184821
aF1.94641314827426
aF1.0550779292002224
aF1.9977664997922016
aF0.12549648114473527
aF0.47784147449999903
aF1.6539290803648032
aF0.9781976849709118
aF0.2240121829531035
aF0.553694492436052
aF1.6576607668374463
aF0.1983283211343177
aF1.274707886598368
aF1.9336673460059155
aF0.4707586412191185
aF1.285055884852057
aF0.10468190028670596
aF1.738459186357694
aF1.4192223619759983
aF0.7279669161324177
aF0.490163782066833
aF1.7538550027965776
aF0.30024790916562244
aF0.3806213134380314
aF1.2840860199126058
aF1.1230021410913225
aF1.1509296716483202
aF0.8846083518242924
aF0.8454366927485429
aF1.6033008979291046
aF0.15425177478520619
aF0.854819098103744
aF0.7705102544596144
aF0.23423532488459475
aF1.7552204410617345
aF1.687062003807084
aF0.6865537053315408
aF1.3634323779654702
aF0.1631690612623507
aF1.7918188477574952
aF1.0486918338496467
aF0.7494361219726301
aF1.3394525603825849
aF1.514029332917395
aF1.0424085919751598
aF1.9762166280403535
aF1.2569957578772415
aF0.6692395266305078
aF1.5356584864122214
aF1.1797610390598812
aF1.680033246225942
aF0.4095838410492073
aF0.6271350682336054
aF1.3787177152456405
aF1.6891447017897163
aF0.8767630152784146
aF0.4205246304085577
aF1.0016013755485909
aF0.6413009839754327
aF0.36854699985445305
aF0.12046839790435233
aF1.855526984916543
aF1.5124645608603193
aF0.8937421191153088
aF0.943436694477436
aF1.4365798192615085
aF1.6963090435536703
aF0.9401900389351573
aF0.44203010278052246
aF1.833500391653761
aF1.8294160060939735
aF0.5043008691560026
aF0.34953488295923385
aF0.9142686458179835
aF0.14184182960857475
aF0.8536093135625954
aF0.28687452291827176
aF1.3571234732517892
aF0.1810467784676305
aF1.470779305639782
aF0.6619893779939547
aF1.6899319265176853
aF0.4741444444049916
aF0.7129325807253235
aF0.9727031495291302
aF1.5878154456658633
aF0.5749971469410244
aF0.9771979227679627
aF0.457594124559601
aF0.9000380733299141
aF0.35734582877270493
aF1.6142352765089063
aF1.3451040783113655
aF0.48643736260817894
aF0.38191048369829517
aF0.9975980432996396
aF1.8130690599382222
aF1.9838850822095255
aF1.9126511219066198
aF0.5941213130186307
aF0.95093756504776
aF0.3787443933243554
aF0.722272637009467
aF0.5118851246258037
aF1.4397090185549941
aF1.555106623972496
aF1.8448765603794361
aF1.5922968088377603
aF0.30701690376713975
aF0.5111752744545
aF0.9680195224690437
aF0.5372858167883099
aF1.9695275190815216
aF1.2274899738972223
aF1.4502371159022136
aF1.4422721334574062
aF1.1912798039809618
aF1.5232413253307815
aF1.246706758813615
aF1.9731121588198932
aF1.517485880359973
aF0.4981934371499608
aF0.4666044185346092
aF1.8446203936308356
aF0.4709753923040545
aF0.6312798446312734
aF1.836895033100991
aF0.6224209763260353
aF1.4599743143240582
aF1.6602331134571875
aF0.663328085603164
aF0.5432439007368493
aF0.93261807277356
aa(lp71
g11
(g15
S'------\xd5?'
p72
tp73
Rp74
aI0
aaF415.6831638813019
aa(g11
(g15
S'\x9e\xa1\xc7\x1aw\x1c\xd8?'
p75
tp76
Rp77
I0
tp78
a(g11
(g15
S'\xd3Bm+\x8fJ\xd8?'
p79
tp80
Rp81
I0
tp82
asI4
(lp83
(lp84
(lp85
I148
aF0.3761609567928379
aF0.9123361864394975
aa(lp86
F0.75
aI0
aaF6594.504338979721
aa(lp87
(lp88
F1.9618314679408184
aF1.8838909433249644
aF1.9625609014002068
aF1.7095423771814302
aF0.49530562036378256
aF0.955169281295214
aF1.6066665221358607
aF0.6513274921178392
aF0.5514865552116488
aF1.705895903052769
aF1.2306621602705117
aF0.611199042564883
aF1.0124916537765092
aF0.8362023916551113
aF1.2372222687743122
aF0.4839458927377339
aF0.3755190918694554
aF1.3535921278419039
aF0.3692945794487422
aF0.6194938475528459
aF0.7166019160731769
aF0.7786044768914758
aF1.8227210457396492
aF0.2679775279641998
aF1.4128451896227892
aF0.2633940804754759
aF0.7435410737014617
aF0.25388131298459904
aF0.9994403567178318
aF0.2551327581358605
aF0.13445963081460982
aF1.7096273058033007
aF0.5003365919850805
aF0.20805600620365697
aF0.5366100916466837
aF0.9049909318397282
aF1.0565937333967033
aF1.4010216181331916
aF1.014833927783816
aF0.9523594295735224
aF1.3976503535736404
aF0.38387927861703863
aF1.1415070601033626
aF1.8426189332477432
aF0.89568568524676
aF1.5558413431857663
aF1.367338799952879
aF1.1620804761682304
aF0.4157008817000195
aF0.5370402017039612
aF1.1940992464601727
aF0.8236172507178953
aF1.2841864469347228
aF1.2185920189546464
aF0.46158839606419366
aF1.3230565256413511
aF1.3377782268925884
aF0.714128355538893
aF0.2816316189315011
aF0.8756618393889969
aF0.5191988759250892
aF1.1650564652209274
aF0.2711167715853946
aF0.9496229119976983
aF1.1945509135334058
aF1.6189049167474325
aF0.2196665555151398
aF0.11470755044168704
aF1.865278905538612
aF0.10465576373053398
aF0.2922149291230667
aF0.36451204790379554
aF0.7426706036410559
aF1.3285434644378085
aF1.9646996957018854
aF1.6742039510686297
aF1.1510864841850221
aF0.4251924123498064
aF1.9891009476588049
aF0.6096182457669638
aF1.2960139598867602
aF0.10276759530439661
aF1.8918406023662804
aF0.31644341689215993
aF0.32063446799059525
aF1.8541568448451669
aF0.32656381415685615
aF1.908555561454893
aF1.3718673049221246
aF0.47914164457885133
aF1.0428126460147407
aF1.8734271965749985
aF1.2406355417937307
aF0.4137105155238969
aF0.745672679971338
aF1.4979960711872338
aF1.409470280225321
aF1.6575475937215325
aF1.1528091179381763
aF1.578014126985271
aF0.5153723170890834
aF0.17520288723694438
aF1.6493948473083082
aF1.01223171576088
aF1.7924701213065235
aF1.7320585652224045
aF0.5207051310184146
aF1.0009666218755444
aF1.055669232901039
aF0.8097284296308631
aF0.506084074963218
aF1.1707718467742567
aF0.10936120865638439
aF1.4569959375634096
aF1.4198426284251482
aF1.3092596513098005
aF0.12112264216720275
aF1.1384584735660153
aF0.8618083624859136
aF0.7271515753054366
aF0.6049170334295739
aF0.40696177177895476
aF0.9716072069670683
aF1.907602042178547
aF0.6124383293415788
aF1.2788803867429643
aF1.870291472833942
aF0.5476380286738574
aF1.2322833611251591
aF0.1633558750606201
aF0.23166247164607304
aF1.8322210648020671
aF1.5117965643412528
aF0.27739526722565166
aF1.426827167674928
aF0.3518785329604558
aF1.3734463695120829
aF0.3488786830765316
aF0.5378826786275898
aF0.5771942863685168
aF1.4250430929198148
aF1.4189706431091305
aF0.9728819370367394
aF0.2743457297605061
aF0.5658729040497519
aF1.3266708441758632
aF1.7080573032001396
aF1.308738138352993
aa(lp89
g11
(g15
S'~\xf1\xd4\xf3\x1d@\xdd?'
p90
tp91
Rp92
aI0
aaF391.7700459957123
aa(g11
(g15
S'\x11\xcc <n\x9f\xd9?'
p93
tp94
Rp95
I0
tp96
a(g11
(g15
S'\xd8\x89\x9d\xd8\x89\x9d\xd8?'
p97
tp98
Rp99
I0
tp100
asa(lp101
g24
ag42
ag60
ag78
ag96
aa(lp102
g28
ag46
ag64
ag82
ag100
aaF33698.12564611435
as.