(dp0
S'SE1'
p1
(lp2
(dp3
I0
(lp4
(lp5
(lp6
I70
aF0.9063677825360257
aF0.6923015739167959
aa(lp7
F0.75
aI0
aaF25039.85728406906
aa(lp8
(lp9
F1.2460158309421612
aF1.588405457371534
aF1.4076190214382225
aF0.7579834334473959
aF1.567566267810365
aF1.226237742017553
aF0.9169206066939526
aF0.5069502585159771
aF1.4893310629793646
aF1.9511383905780428
aF0.7100637952930837
aF0.7698223528081051
aF1.2405214260688049
aF0.20826213233221108
aF0.717722960958478
aF0.1
aF1.7064278475890213
aI2
aI2
aF1.0544627491439078
aF1.2658086973593299
aF0.5668227834950277
aF0.4142283758566224
aI2
aF0.16121649932719206
aF0.9492024858894168
aF1.904522239169619
aF0.26989294638955924
aF1.553859675482295
aF1.362749386367636
aF1.618257547602083
aF1.6555896976434283
aF0.9089411755526522
aF0.21344946877365928
aF0.8660992070773521
aF0.9622230247210621
aF1.6823365804776849
aF0.1
aF0.1
aF1.8603536158565668
aI2
aI2
aF1.9639087281882097
aF0.1
aF0.8415580711231657
aF1.9932483391787428
aF0.5621020109420957
aF1.149515283791015
aF0.1
aF0.1
aF1.0379292938642393
aF1.4446536235330985
aF0.1
aF0.7946988966535548
aF1.1351926742606684
aF1.2223592978966376
aF0.8338468056244017
aF1.4351593903550772
aF1.285532123550241
aI2
aF1.7181332131582978
aF1.5099954857517786
aF0.7379834222750868
aF1.7206332148519827
aF1.172263921880706
aI2
aF1.629564912807494
aF0.5687206371902549
aF0.3541074479996643
aF1.3147761614890165
aa(lp10
cnumpy.core.multiarray
scalar
p11
(cnumpy
dtype
p12
(S'f8'
p13
I0
I1
tp14
Rp15
(I3
S'<'
p16
NNNI-1
I-1
I0
tp17
bS'oI\xa8!m\xaf\xec?'
p18
tp19
Rp20
aI0
aaF554.2220749855042
aa(g11
(g15
S"xF\x8dU'\xa8\xeb?"
p21
tp22
Rp23
I0
tp24
a(g11
(g15
S'v\xe5\xdc\xfa\x11A\xec?'
p25
tp26
Rp27
I0
tp28
asI1
(lp29
(lp30
(lp31
I138
aF0.17060177502040386
aF0.56996719637151
aa(lp32
F0.75
aI0
aaF27623.324141979218
aa(lp33
(lp34
F0.9177559712668713
aF1.3729919387276903
aF1.5958225043990346
aF1.38774301277748
aF0.7437236941046634
aF1.877194146441782
aF0.33781224572107316
aF1.6579933948149725
aF0.8418952595311929
aF1.2645700915561287
aF1.3294368158891052
aF0.643941641580753
aF1.8825730144810842
aF1.7132726535179128
aF0.23676931049943215
aF0.5492347838015873
aF1.7804430280371373
aF0.20280198341196393
aF1.1658040374909426
aF1.2092740326303326
aF1.8189278481395783
aF0.4339846640771923
aF1.3713737325051079
aF0.7571800814412897
aF1.1635768769821269
aF0.6793595761949024
aF1.6522879057686481
aF1.6941557554928373
aF1.2473313864803017
aF0.6478442460526305
aF0.5810105883999506
aF1.7982761160708203
aF0.7711012861115898
aF0.11007078868066877
aF0.6904767390617684
aF0.1775877526229533
aF0.9670853310103288
aF0.1350528049990361
aF1.7263119643738198
aF0.3079541075797283
aF0.3451975022788919
aF0.9157958991585577
aF1.8889939703386138
aF1.5542634655408576
aF0.5749509802584764
aF0.7809466088271997
aF0.657886251202479
aF0.11697515470322863
aF1.3536392156818595
aF0.6273484545003867
aF0.3454707853987079
aF1.3862652221268184
aF0.8521358636205044
aF1.6575051269599546
aF1.0358978619497685
aF1.1606998381836224
aF1.9230003803675326
aF0.8040741795464431
aF1.1565253968117015
aF0.6044075682272121
aF1.4518845386931742
aF1.3818919739375948
aF1.9802907115693185
aF1.5773251899153853
aF1.7166808425780244
aF1.6896527424087162
aF0.4335818516323857
aF1.9760641536635872
aF0.6419929006332165
aF1.4585589215163102
aF1.8263043144546691
aF0.3673287840070878
aF1.1231795840945036
aF0.38386180107305246
aF0.10586163009103278
aF1.3670417994783364
aF1.6818047480359153
aF1.529206697447946
aF0.2731348634597857
aF1.1866904164356453
aF0.39095377649654295
aF0.8948332729425554
aF0.7063370088006558
aF0.4418922679280892
aF1.3324434869876987
aF1.6614896421535923
aF0.45321157639706977
aF0.888633902176564
aF0.5846039915307863
aF0.2547413431556894
aF1.7618721379843496
aF0.32594961102973874
aF1.9324024585937984
aF1.5692221392640149
aF1.7937273610920696
aF0.7775055055487593
aF0.575084943382415
aF0.5143774404555578
aF0.6749728330922262
aF1.0596670353980264
aF1.2650997703882145
aF1.246959104686065
aF1.698782768741318
aF1.0201445222848295
aF1.724056841880667
aF1.2631330128333622
aF0.9510318389738104
aF0.5281888677705188
aF1.5240679640245425
aF0.3025428586375465
aF1.4593864870636248
aF0.46123085512165307
aF0.9287837169962058
aF0.640129665118744
aF1.7006653708328412
aF0.9892584637089533
aF0.33432238943320863
aF1.3784721272420641
aF1.5886469336146647
aF0.33675804665357756
aF0.697786476683069
aF0.995215518949253
aF0.4212775122617387
aF0.2801804472081316
aF0.3074874713280519
aF1.8442493637936437
aF0.8515222869731637
aF0.3001671448874215
aF0.11775094740365269
aF0.12757644143333743
aF1.1288674712971039
aF1.6299387474321982
aF0.8007861250373624
aF0.881672176552451
aF1.2444270628602712
aF1.4740048547723918
aF1.5846307455970559
aF1.940979927589651
aa(lp35
g11
(g15
S'\x1f\xe4q\xc17\x1c\xed?'
p36
tp37
Rp38
aI0
aaF709.4113850593567
aa(g11
(g15
S'\xa6\x01N\xc8T;\xed?'
p39
tp40
Rp41
I0
tp42
a(g11
(g15
S'P\xf9\xf5p)>\xed?'
p43
tp44
Rp45
I0
tp46
asI2
(lp47
(lp48
(lp49
I141
aF0.1853691434842579
aF0.9290461530266125
aa(lp50
F0.75
aI0
aaF29751.514744997025
aa(lp51
(lp52
F1.050282229749596
aF1.7672892096149417
aF0.27563506598040344
aF0.2986063819670556
aF0.13989394746479936
aF0.48226307309112826
aF1.0303030513283937
aF1.378936900915942
aF1.0816889765319164
aF0.22660279793612775
aF0.14885460118552601
aF1.6201695175901614
aF1.3182469173380829
aF1.0088964300745273
aF1.500005734437482
aF0.6495962178086417
aF1.8720223624322656
aF0.7974234069875892
aF1.3699228748383088
aF1.5393189011811603
aF1.500634107361723
aF1.6286658166304153
aF1.9646547060667463
aF1.9360031223527876
aF0.27212566126202975
aF1.6138986921205847
aF1.9635716802734888
aF1.3145513784100928
aF0.6017860441739123
aF1.4639431077405254
aF1.0346213213130722
aF1.6404781528506067
aF1.5662133622411878
aF1.6587926130781243
aF0.7220069818060735
aF0.7795972692663247
aF1.6578095198321787
aF0.81547723649894
aF1.2800043760625381
aF1.114690980331649
aF0.27574648788040346
aF1.2886229188561085
aF1.0101283448740284
aF1.449450459740747
aF0.553257290538201
aF0.2691982945899241
aF1.3905470660792
aF1.472805113410871
aF1.3112094712504687
aF0.21328081440803567
aF0.9827521098187547
aF1.8821854553521244
aF1.8989434896352924
aF1.8937029798195464
aF0.7804652419565715
aF0.48322684668831817
aF0.8735253049842587
aF0.7189856670328715
aF1.0010643590948265
aF0.46477037654469777
aF1.4582138210179838
aF1.3467072129657511
aF1.4127155439584527
aF1.786082935439803
aF1.4473600757630252
aF1.13416025028059
aF0.3780900088247028
aF1.6352580594817956
aF1.853779539738828
aF1.3239660456111795
aF1.1978345294935393
aF0.22941857180066133
aF1.5610037418709688
aF0.256619537356661
aF1.1197341729271764
aF0.23472111642002239
aF0.4156125515770239
aF0.7970072014604132
aF0.3365246906229352
aF1.4214988522915128
aF1.0764522994028984
aF1.401065753009799
aF1.0642972280949115
aF0.9073263488609039
aF1.3684928489840487
aF1.5939341399441054
aF0.5188636736166683
aF1.9598281028994047
aF0.632759339893056
aF0.4717612053766107
aF1.0617715365448108
aF1.8453497343253875
aF1.5874878172013507
aF1.0387711803149033
aF0.5856306002787398
aF0.8806250387879085
aF0.3916366817515192
aF1.9176865709409672
aF1.8605708840692565
aF1.0463236508711342
aF0.8319072128485934
aF0.4696553575794463
aF0.11322000711108146
aF1.15587943931192
aF1.6250005139221368
aF0.19461061276735528
aF1.845230379788664
aF0.8845155719680821
aF1.7222939246304043
aF0.7080545086962746
aF0.97626667398187
aF0.7972237527971625
aF1.4581158820723819
aF1.8723754938624297
aF0.19685772504142346
aF1.5908576522221878
aF1.8096942748933802
aF1.9382305633181653
aF0.5416976681940638
aF0.933047109816482
aF0.6841081852695649
aF1.6404867399150178
aF0.516889994655532
aF0.14086492790617822
aF1.133867702826617
aF0.49002558943363406
aF0.8888103931079162
aF1.991627440445109
aF0.25712945325403036
aF0.7504884940368252
aF1.1449865651978617
aF0.9086358635058149
aF0.43034474029056846
aF1.1174543413557716
aF0.6452371613982173
aF1.0020583607857367
aF1.2905339635116295
aF0.9632445618756585
aF1.4840074426579348
aF0.17327900036638005
aF0.6637126561864949
aa(lp53
g11
(g15
S'2C\xcc\x103\xc4\xec?'
p54
tp55
Rp56
aI0
aaF894.9405701160431
aa(g11
(g15
S'\xb1\xa7\x1f\xf5\x8ah\xec?'
p57
tp58
Rp59
I0
tp60
a(g11
(g15
S'+~\x85o\xb1\xeb\xec?'
p61
tp62
Rp63
I0
tp64
asI3
(lp65
(lp66
(lp67
I77
aF0.8721393446784216
aF0.8308360788108715
aa(lp68
F0.75
aI0
aaF26657.656170129776
aa(lp69
(lp70
F1.7470282542177105
aF0.838150073675599
aF0.8759242929440335
aF0.8897113854975136
aF1.8998283099945819
aF1.741786338881229
aF1.5972294349398275
aF0.7746743223001817
aF0.11908483192723406
aF1.9586523819948998
aF1.4379193077963703
aF0.6643720831843261
aF1.4890424415211863
aF0.8974928766403063
aF1.2157935572654137
aF0.9870495166596069
aF1.7159645793901757
aF0.20760227427068778
aF1.616664582452591
aF0.6468313467219541
aF0.41751055533583803
aF1.6284091807720285
aF1.553642013680988
aF1.7601002516663842
aF0.6253310886048231
aF0.47027704509602086
aF0.3926736527099367
aF1.9241706429795291
aF1.2676389374120522
aF1.7135785884457404
aF0.45173794354245567
aF0.7157498815302603
aF1.1996995950542064
aF1.924964608210359
aF0.5080007338746739
aF0.3840085732428654
aF1.043251128400032
aF0.9666336192818615
aF1.7283366738407064
aF1.4306181388047376
aF1.236890343900517
aF0.3164591191448957
aF0.21322775606236782
aF1.2484837520082313
aF1.323563056441816
aF1.9790769426238306
aF1.2367432880264742
aF1.7761597223264989
aF1.4040081582904909
aF0.6560645917260903
aF1.5031187779151562
aF0.16378576165703895
aF1.569645915571189
aF1.1169759186899544
aF0.18557841996986812
aF1.7023752616729262
aF1.6285101575076955
aF1.2217737549944836
aF0.7573282508761756
aF1.3823171095874036
aF0.8386189975807475
aF1.2722713455501427
aF0.981960641479712
aF0.6488143869841607
aF1.9151284470899819
aF1.7448609987544064
aF1.0363659222495847
aF0.2852158488689608
aF1.6685434822053462
aF1.925512731384065
aF0.6422514571683625
aF0.32020982920817187
aF0.2471801367220969
aF0.7590209939527333
aF1.8275836543856792
aF1.994004670600823
aF0.4749529475748244
aa(lp71
g11
(g15
S'UUUUU\xf5\xec?'
p72
tp73
Rp74
aI0
aaF596.5997269153595
aa(g11
(g15
S'r\xcc=\x02\x8e7\xeb?'
p75
tp76
Rp77
I0
tp78
a(g11
(g15
S'\xe2\xc2\x85\x0b\x17.\xec?'
p79
tp80
Rp81
I0
tp82
asI4
(lp83
(lp84
(lp85
I136
aF0.7030917571370281
aF0.44339525772166477
aa(lp86
F0.75
aI0
aaF29836.89688515663
aa(lp87
(lp88
F0.8372545738369087
aF0.7048981221713027
aF1.3193303676100199
aF1.93467726119983
aF1.7676977327631807
aF0.19450583392709747
aF1.4366234005860907
aF1.1773300363243702
aF0.9133718228141635
aF0.6073279237100507
aF1.0967082509081632
aF1.96413302672122
aF0.33969953147969745
aF1.6274807378932397
aF1.1775153618970247
aF0.8855540253536277
aF0.14138832747048458
aF0.16591656232044605
aF0.8621236096589276
aF0.5049318979455895
aF1.0292766955177488
aF0.2580171886628315
aF1.719180962950303
aF1.6213058263722713
aF0.689661920959554
aF1.0731596296705008
aF0.6990866101245304
aF0.12174132202144766
aF0.4455164960988822
aF0.2928858493241189
aF1.7447158084490006
aF1.5655663416416563
aF1.3227164703567573
aF1.1828596794046402
aF1.827652692454225
aF0.427806550131281
aF0.23757214005347127
aF0.7447760933816416
aF1.314048578939358
aF0.3638340314025106
aF1.9988881246531514
aF0.7341314372332742
aF0.41420221684132774
aF1.3168304796510428
aF0.5288319106967926
aF1.8244646449691266
aF1.1447627740054391
aF1.9738549210010055
aF1.5771738267317625
aF1.2859931210123685
aF0.8787423013555022
aF0.5886809071365988
aF0.5256617624443365
aF0.21580358013322418
aF0.3611535433933465
aF0.6683344374360933
aF1.8285427125536
aF0.916560286372102
aF1.5086128974912085
aF1.0634987659754866
aF1.7876791856687935
aF0.26513403238292343
aF1.192326282792926
aF1.5499272390910313
aF0.9944799109405127
aF0.3131034368453378
aF0.47188879440590603
aF0.7915063370407492
aF1.7249381473526468
aF0.6222091806582931
aF0.8708942944188077
aF0.412151653819261
aF1.779224085318899
aF0.41290414726251556
aF1.2748605785190574
aF0.45915003844739044
aF0.9698828226927804
aF0.3258293717730774
aF1.147581871280838
aF0.5853764454207724
aF0.7876178402657701
aF1.5701313111572468
aF0.10754450967146682
aF1.6928125385514712
aF0.41930904229773114
aF0.2232504929861166
aF0.1983587057404427
aF1.7057841014030202
aF1.288439261809289
aF0.988978006854587
aF0.722951824050054
aF1.1656813870620246
aF1.8473532141573286
aF0.5860991554360566
aF1.7233052975175644
aF1.9796016700196997
aF0.3155418917339592
aF0.7466563753569395
aF0.688199148179198
aF0.5582043569535108
aF0.6189615728908795
aF1.6084718747915818
aF1.8410204755826212
aF0.6619626444393056
aF1.6139853988469939
aF0.7467867658361715
aF1.053012309044265
aF0.6269060411532559
aF0.43218342575595814
aF1.7105765607580408
aF1.6182194579409077
aF1.7587341856427705
aF1.97437517154787
aF0.15336281767231771
aF1.4909481287064685
aF1.8220168739339393
aF1.9182887928451333
aF0.6543119963284799
aF0.19053971524028665
aF0.46151110969154474
aF0.12816722640635114
aF0.6949422148177147
aF0.31295909933042987
aF1.7749111731801195
aF1.7788512353399208
aF1.225101692181447
aF0.11397262843361769
aF0.7194304238408581
aF0.5164133313691184
aF1.4717934309415974
aF0.5840376293074376
aF1.7222903620462349
aF1.2688813588038574
aF0.8417292344802936
aF1.381213288228611
aF1.3330025069848757
aa(lp89
g11
(g15
S'\xf0\x8f\x1e\xc9T\xba\xeb?'
p90
tp91
Rp92
aI0
aaF960.2429919242859
aa(g11
(g15
S'\xed\xd9v?\x8f\xeb\xeb?'
p93
tp94
Rp95
I0
tp96
a(g11
(g15
S"xF\x8dU'\xa8\xeb?"
p97
tp98
Rp99
I0
tp100
asa(lp101
g24
ag42
ag60
ag78
ag96
aa(lp102
g28
ag46
ag64
ag82
ag100
aaF142625.1355559826
as.