(dp0
S'SE8'
p1
(lp2
(dp3
I0
(lp4
(lp5
(lp6
I89
aF0.3685308559428889
aF0.6804444104848762
aa(lp7
F0.5
aI0
aaF47377.75408911705
aa(lp8
(lp9
F1.002730677990529
aF1.4166063774425457
aF0.5313976369139155
aF1.9460255011851695
aF0.7676437253209087
aF1.4808100653862177
aF1.5147211798668234
aF0.6428844058254773
aF1.0254370647286908
aF0.404599957474452
aF1.0519950091118035
aF0.30506970581592907
aF0.452693111889897
aF0.6877384984034912
aF1.626866723242699
aF0.6331823301401733
aF1.1714889426651824
aF1.7969169744175912
aF0.2460967930695531
aF0.34408699093522355
aF0.8580043297508292
aF1.3193162577474342
aF1.3248704793401822
aF0.30280371753027213
aF1.4397566516596885
aF0.12217992227537984
aF1.6670560388387545
aF0.5418990488368257
aF1.6947243592950796
aF1.115852180687909
aF0.3098683380583277
aF1.190928393861796
aF0.9218597470911138
aF0.23480892538492126
aF1.1997918024891892
aF1.2067398811220533
aF0.2783590487606906
aF1.147680482883162
aF0.23882561641905903
aF0.12188693708678239
aF1.812791104081304
aF0.8336319404016815
aF1.7294657020478006
aF1.3613055121213564
aF0.17115753750865975
aF1.8017315232501014
aF1.0277597349617034
aF0.5068095948302245
aF1.9495851656621208
aF0.8403159424414227
aF0.40581944568975736
aF0.40008709384938834
aF0.8207537867501463
aF1.3468285017291737
aF0.4565269882250278
aF0.5537577362285016
aF1.0822581999934444
aF1.9855706139472324
aF1.5690871012087633
aF0.6019431755512317
aF1.669084629117016
aF0.5181583010924585
aF0.20713662771210728
aF0.962736591248018
aF1.1296849937124642
aF1.0960449078348165
aF0.692492273653986
aF0.8214322747903191
aF0.45716696766212683
aF1.3477049009132935
aF0.10339238103271776
aF0.5955658175782468
aF1.3544304519045303
aF1.9841449374123323
aF1.5744736610742711
aF0.12397107304311662
aF1.7229409051364237
aF1.971063957937415
aF1.1725804269884599
aF1.2704488723366787
aF0.5485007703825584
aF1.7624008560569744
aF0.5967200077093954
aF1.66335704401797
aF1.3152152580509402
aF0.8129412220050288
aF1.9117881864564479
aF0.26761998433402523
aF0.5697491593556474
aa(lp10
cnumpy.core.multiarray
scalar
p11
(cnumpy
dtype
p12
(S'f8'
p13
I0
I1
tp14
Rp15
(I3
S'<'
p16
NNNI-1
I-1
I0
tp17
bS'\xa0L\\\xe9\xde\x80\xd2?'
p18
tp19
Rp20
aI0
aaF3451.876105070114
aa(g11
(g15
S'\x04\x89V\xd8\x1cH\xd4?'
p21
tp22
Rp23
I0
tp24
a(g11
(g15
S'\xc4\xcf(\xf13J\xd4?'
p25
tp26
Rp27
I0
tp28
asI1
(lp29
(lp30
(lp31
I140
aF0.1958986024169137
aF0.7562106965038412
aa(lp32
F0.75
aI0
aaF49354.75636410713
aa(lp33
(lp34
F0.5209578378025816
aF0.3815685468801059
aF1.965981277887325
aF0.6663732846466721
aF0.29173541939536907
aF1.744974050093097
aF0.900166124981447
aF1.5494828691645335
aF1.6920301910714795
aF1.3073115254352428
aF1.9085987293076034
aF1.5654820709936825
aF1.720104114436009
aF1.9061303811973906
aF0.7255006401699773
aF0.6139797745174584
aF0.7071162528509449
aF0.5091671993054135
aF0.8212237116916732
aF1.5659541303035533
aF0.5541921799463395
aF1.8016947400136234
aF1.1838237501568931
aF0.7612358544801929
aF1.1387129144283998
aF0.3751782101333755
aF0.6903943574239608
aF1.2025335189210182
aF1.1517438008622345
aF1.1827763850036392
aF1.8560747891122127
aF0.2821415550428251
aF1.7233582610670803
aF0.6790902894728593
aF1.7081914678428307
aF0.5865819356573164
aF0.622988203256462
aF0.1557191414625941
aF1.4463635266355637
aF1.6482379240333547
aF0.6678867979424105
aF1.0355110643747647
aF1.3592582372977
aF0.29403067948432193
aF0.29697023391243227
aF1.2301447578200364
aF1.0811732080142382
aF1.796033633093352
aF0.5788283788990015
aF0.30223813067111294
aF0.6490201529438306
aF1.184336466246929
aF0.25325962594426926
aF0.6187973961146036
aF0.8890610941863966
aF1.443876246262315
aF0.9944747377136475
aF0.5674793053459063
aF1.3365859380609681
aF1.797624471721284
aF0.5243938169428808
aF1.689771365460725
aF1.0188104208240951
aF0.8966417498221214
aF1.067646750460957
aF0.14373893286253248
aF1.76118394014905
aF0.6437672461673354
aF1.8799943934844912
aF0.2305586749368331
aF1.7561512638776884
aF0.9310859355881543
aF0.3457958284851944
aF0.6009375991848638
aF1.5005105771420129
aF1.9644499170255814
aF0.7316609113362659
aF1.3853509552215317
aF0.4066762595948953
aF1.549625561624353
aF0.5088373351508274
aF1.9191155794751253
aF1.2426793016124202
aF0.7004816228096901
aF0.4110936447108209
aF1.210334533962873
aF1.7046866636849365
aF1.6925720110322038
aF1.0663713184693226
aF1.2571166275332042
aF1.9097281000610196
aF1.1278583192099028
aF1.1968375465795054
aF0.531861254485768
aF1.6234824171029465
aF1.524411269587238
aF1.199199441989715
aF1.6056897144040143
aF1.8697959566767346
aF0.4231358659312573
aF1.992325597060157
aF0.918627649135743
aF0.9857696332182757
aF1.596178571281512
aF0.6427741850507872
aF1.8004168608248132
aF0.8751554687592406
aF1.9215680345681878
aF0.5858375505181028
aF1.9746463911059584
aF1.215739170334623
aF0.7303160111362981
aF1.584293207479864
aF0.8028785002662395
aF1.850102899274745
aF1.158658431251437
aF1.221873024129104
aF1.902429739727007
aF0.8776336671737274
aF0.4724462833668288
aF0.5914203727119491
aF1.714632721503023
aF1.264697650386821
aF0.9581186216090857
aF1.5214933071355607
aF0.30945495343612706
aF1.0273213510689057
aF1.2549526294712667
aF0.11677190157922394
aF0.35960780933511705
aF1.7641637608639962
aF0.938194235782434
aF1.4151494245717469
aF0.9950545119041322
aF1.6506479744743345
aF0.25555618799495883
aF0.29130714666260393
aF0.9714180242912889
aF1.0958560744078765
aF1.0175277040774517
aa(lp35
g11
(g15
S'4\xaeE\x82\x9a\n\xd1?'
p36
tp37
Rp38
aI0
aaF5607.5847680568695
aa(g11
(g15
S'\xd7s~v\xfcW\xd3?'
p39
tp40
Rp41
I0
tp42
a(g11
(g15
S'\x06\xf5\x8b\xc7\xcf&\xd1?'
p43
tp44
Rp45
I0
tp46
asI2
(lp47
(lp48
(lp49
I73
aF0.4740287312298942
aF0.44637281527569744
aa(lp50
F0.75
aI0
aaF44467.22667098045
aa(lp51
(lp52
F0.5463868676115409
aF0.8710708360100283
aF1.1567056974272256
aF0.4704198334211057
aF1.5405860686887465
aF1.6975668905897667
aI2
aF0.6593621017005328
aF0.5414719959235772
aF0.480506608087305
aI2
aF1.0337440391303425
aI2
aF0.3500077351080279
aI2
aF1.9031896226456888
aF0.757968665358002
aF1.1463106238362446
aI2
aI2
aF1.391203736150529
aF1.6929236370800622
aF0.8531699398989544
aF1.0377584174136993
aF0.1
aF0.24119430764964067
aF1.050830887320346
aF0.7735419643065626
aF0.1
aF0.5014145231292975
aF0.7673175391192502
aF0.1
aF0.1
aF0.5874802257561293
aF0.7053972004083215
aF0.27979474147508354
aF0.1
aF0.3474681194450711
aF0.4800120013112459
aF0.4712843347523157
aF1.00469767162424
aF1.3776920146857166
aF1.2856372062843133
aF1.6494679378889097
aF0.45921921820333544
aF1.033708601806724
aF1.8156448050885288
aF1.2238570734210543
aF0.1
aF0.6859821590338021
aI2
aF0.7484595698327459
aF0.9605722994037693
aF0.512800415134845
aF0.1
aF1.6904977285954175
aF0.6500319372536394
aI2
aF0.5309491422084647
aF0.1
aF1.0487857668003084
aI2
aF1.6199462501836444
aF1.393401262105062
aF0.839974041654858
aF0.1
aI2
aI2
aF0.7200846958629251
aF0.1
aF0.61452474944558
aF0.43814480093776786
aF1.5378099318474467
aa(lp53
g11
(g15
S'T\x06{\xe8\xed{\xd5?'
p54
tp55
Rp56
aI0
aaF2913.1738028526306
aa(g11
(g15
S'\x8c:\xe1\xf7\xa4\xb2\xd2?'
p57
tp58
Rp59
I0
tp60
a(g11
(g15
S'ds^\x15\xe2)\xd2?'
p61
tp62
Rp63
I0
tp64
asI3
(lp65
(lp66
(lp67
I89
aF0.564085652977164
aF0.9078937645580516
aa(lp68
F0.75
aI0
aaF44256.035614967346
aa(lp69
(lp70
F1.6078692989511922
aF0.8211951499938333
aF0.8197193579170671
aF0.9590303250922123
aF0.10820100235955434
aF1.3088806018777623
aF1.8146697855104064
aF0.22271583788863447
aF1.7044872783793064
aF0.8577443094633317
aF1.4924116258098086
aF0.7063873970741674
aF1.1383391941366043
aF0.7985310690790003
aF0.6287794213226521
aF1.1866143468514507
aF0.2703519988531584
aF1.502137422473748
aF0.7020876111211402
aF1.5772374240173177
aF0.2862666407040937
aF1.8226332900194793
aF1.1090350529839283
aF0.463648319993882
aF0.16268564892151333
aF0.41649591926245555
aF1.5954288863909944
aF1.9178248013136554
aF1.606345910874531
aF1.5366478777649302
aF1.2161943071838928
aF1.8087695834027284
aF1.7537657900654506
aF0.6339346058727591
aF0.9673161759588382
aF0.6895384387073237
aF0.6245311255451593
aF1.9232946240352102
aF0.4885425881698955
aF1.0505753634121735
aF1.2899828680351686
aF1.1081818837247628
aF0.34843178597192764
aF1.2292369678965083
aF1.3705650628690267
aF1.6808617261660044
aF1.7940175183214926
aF1.0477624514962252
aF0.11936801930763179
aF0.6265083043198465
aF0.8504607799574452
aF1.7831075082381662
aF1.2823022921967233
aF1.4125357240330783
aF0.11459553264812694
aF0.46424514324072097
aF1.7899628804595509
aF0.6238549691220531
aF0.29456079291131526
aF1.7918919173309462
aF0.7861603733478719
aF1.0981811116519269
aF0.29822921956604675
aF1.9169919605761423
aF0.26619888994477126
aF1.1285946881676476
aF0.28801823337475774
aF0.5946593907733567
aF1.216655860774203
aF1.157301132082123
aF0.6083827441803297
aF0.6767292316050133
aF1.1866599315604887
aF1.4882785536128118
aF1.9593722650540835
aF1.7329325422705935
aF1.9414705192110369
aF0.4332709087848038
aF1.8959324728115485
aF1.4184423214246369
aF0.7220757047552437
aF1.844438057933956
aF0.9206247790925992
aF0.8181279408582507
aF0.42484492017010456
aF0.2484633781515974
aF0.633289135525602
aF1.8407975323169556
aF1.5362635620564347
aa(lp71
g11
(g15
S'\xd1E\x17]t\xd1\xd5?'
p72
tp73
Rp74
aI0
aaF4067.1148250102997
aa(g11
(g15
S'\x11\x11\x11\x11\x11\x11\xd1?'
p75
tp76
Rp77
I0
tp78
a(g11
(g15
S'%g\x0e\xb7\x9a\x95\xd2?'
p79
tp80
Rp81
I0
tp82
asI4
(lp83
(lp84
(lp85
I79
aF0.14482520630332332
aF0.6159520460144823
aa(lp86
F0.75
aI0
aaF40673.70588707924
aa(lp87
(lp88
F0.31095730615077666
aF1.9622009333492365
aF1.5243342015835797
aF1.1182119936517894
aF1.37796853964745
aF1.025469222039458
aF0.23505612962698663
aF0.14523066971368712
aF0.5949929851974324
aF1.7101538411734991
aF1.3217362492193676
aF1.9711374611008676
aF1.125434897644096
aF0.5526513566933822
aF1.5020624088520367
aF1.9520919642077244
aF0.5261862119034083
aF1.6590207121974323
aF0.8517835802194613
aF1.6285285114395434
aF0.7051197711308308
aF1.5900509706453214
aF0.24634859031020312
aF1.259369494736885
aF1.0981255035308706
aF0.8127168098404562
aF1.5635107429410657
aF0.6804915434086704
aF0.4067210484676189
aF1.9485910536812212
aF0.526219574917166
aF0.6586066493960774
aF0.9707269623719922
aF0.6290401718815192
aF1.1118439784086074
aF1.0777857925429009
aF0.6864978961274597
aF1.3423370953976994
aF0.4255398727200277
aF1.2958606411620974
aF1.436413454027327
aF0.5181816747386808
aF0.19703339831018574
aF0.7008053244987104
aF1.0277283204765806
aF1.181369217671413
aF0.3079897176346664
aF1.6268620325248762
aF0.4546915152790614
aF1.7682711125278705
aF1.7306575750107474
aF0.6476128789850301
aF0.8084091248093409
aF0.4821180529643332
aF0.49713420851695744
aF1.2798831078042776
aF0.22298864966618295
aF1.885067606115496
aF0.5839243797551833
aF1.9311021707093596
aF0.39163354159700625
aF0.8198322521531701
aF0.7996314293854925
aF0.8386899270130809
aF1.0656369842262448
aF1.1829046190051051
aF1.3112921039538892
aF0.451920693095768
aF1.1096249731007766
aF1.2032011658132444
aF0.7050699681809749
aF1.7812367393907298
aF0.6462366367254949
aF1.6206855046433264
aF0.6895108404619719
aF1.7757040078530464
aF1.1569065376647978
aF1.946020305393733
aF0.883654706791762
aa(lp89
g11
(g15
S'.S\x8d\xa5/)\xd1?'
p90
tp91
Rp92
aI0
aaF3460.7850749492645
aa(g11
(g15
S'\xdb\xf9~j\xbct\xd3?'
p93
tp94
Rp95
I0
tp96
a(g11
(g15
S'z\x06\xa2\xd2\x91=\xd3?'
p97
tp98
Rp99
I0
tp100
asa(lp101
g24
ag42
ag60
ag78
ag96
aa(lp102
g28
ag46
ag64
ag82
ag100
aaF245632.08856391907
as.