(dp0
S'SE3'
p1
(lp2
(dp3
I0
(lp4
(lp5
(lp6
I81
aF0.7937089018390153
aF0.7926048383328966
aa(lp7
F0.5
aI0
aaF39399.9885931015
aa(lp8
(lp9
F0.1
aF0.6689456453984366
aF1.2749660119806565
aF0.7418197716610332
aI2
aF1.6164549918345092
aF1.1162760430998466
aF1.6873328431438124
aF0.1
aF0.2165140405390843
aF0.7673455242159548
aF0.8363476392358198
aF0.49402352297461005
aF1.5583921127903775
aF0.452110629696324
aF0.1
aF0.2611246572199961
aF1.9096193740288328
aF0.1
aF1.9775174691652186
aF0.3744954586186524
aF0.1
aF0.23372773216755335
aF0.1
aF0.1
aF0.8114189998195468
aF1.2433363123418149
aF0.23603975243373473
aF0.9630385732076937
aF0.35930396843334145
aF0.496768576812121
aF1.150651858265771
aI2
aF1.9603075599860558
aF0.15161292701525064
aF0.5301034303838442
aF1.3097187341359686
aF0.5083596795549996
aF1.101807746535116
aF0.23172700283130718
aF1.316695830775562
aF0.24811311118226628
aF1.735366499052674
aF0.4268611348065504
aI2
aF1.3945064652405037
aF1.5457445563657641
aF0.17012499717638502
aF0.43172501620486525
aF1.0754324930216097
aF1.82476716667235
aF0.2111948393163917
aF1.167504832945271
aF0.4301513800797019
aI2
aF1.5461516667405117
aI2
aF0.378364115462522
aF0.5750944537462911
aI2
aI2
aF1.590606013149055
aF1.0144265952998603
aI2
aF1.4721082664719285
aF0.6790593169838268
aF0.4584136024058413
aI2
aF1.769548087998988
aI2
aF1.6323878781182142
aI2
aF1.6774050341263722
aF0.7035016285804823
aF0.2950250784697974
aI2
aF1.660554974031826
aF1.2919851610465303
aF1.698055358907148
aI2
aF0.6238296031251853
aa(lp10
cnumpy.core.multiarray
scalar
p11
(cnumpy
dtype
p12
(S'f8'
p13
I0
I1
tp14
Rp15
(I3
S'<'
p16
NNNI-1
I-1
I0
tp17
bS'\x85\t\x13&L\x98\xe0?'
p18
tp19
Rp20
aI0
aaF3396.784777879715
aa(g11
(g15
S'\xc1e\x96\x86\x18\xe9\xde?'
p21
tp22
Rp23
I0
tp24
a(g11
(g15
S'\x10\x9d`\xb6\x82\xba\xe2?'
p25
tp26
Rp27
I0
tp28
asI1
(lp29
(lp30
(lp31
I150
aF0.2677859203400026
aF0.05700643623092615
aa(lp32
F0.5
aI0
aaF42327.96987605095
aa(lp33
(lp34
F1.5846014484614583
aF0.1
aF1.7244510708459733
aF1.0665086262456223
aF0.1
aI2
aF0.8040111451516224
aF1.085516480450627
aF0.1
aF0.861485193548232
aF1.6251529515114118
aF1.839993381602436
aF1.0317823943722662
aF0.6148993962456816
aF0.9602995801072912
aF1.5987623619916125
aF1.6025226036839326
aI2
aI2
aF0.1
aI2
aI2
aF0.1
aF0.6413717820296447
aF1.1825421680066799
aF0.4648219422585391
aI2
aI2
aI2
aF0.2812751192855656
aF0.5288466124739861
aF0.13354380954466855
aF0.1
aF1.1315526663675715
aF0.1
aF1.5796413735897417
aF0.12471524687111807
aF1.834081163116519
aF0.7880060098557264
aF1.0274013009045304
aI2
aF1.50156187885329
aF0.1
aF0.19421152320061852
aF1.2797691859417193
aF0.27091526324298354
aF0.8247928611407527
aF0.7967407780651128
aF0.1
aI2
aF1.661148623327551
aF0.83129668705946
aF0.29379664820463436
aF1.8601090192195655
aF0.1
aF0.1
aI2
aF1.3269936774181001
aF0.1
aF0.9897943347144071
aF0.6639329166160695
aF0.7824026166226821
aF1.197326944586044
aF1.7385077483125748
aF0.6212650429862177
aF0.42034238762300913
aF0.4297269169608492
aF0.4039927035448505
aI2
aI2
aF0.1710441011081294
aF0.14194913734450332
aI2
aF1.5229895531157154
aF0.9016905260010228
aF0.7631319633908665
aF1.0335311018951812
aI2
aF1.6038997897710876
aF1.1849512720812492
aI2
aF0.1
aF1.6712952087004083
aF0.12838146477522072
aI2
aF1.494936612593812
aF0.1
aF1.6733048785510154
aF1.9791206080954429
aF0.49870985018409514
aF0.9027730980738533
aF1.4119745110191302
aF0.5884788049643861
aF0.5602872448532841
aF0.1
aF0.46482958421833065
aF0.929444569014842
aF1.2997271332907436
aI2
aF0.1
aI2
aF0.1
aF0.41673389419658324
aI2
aF0.7136241474819179
aI2
aF0.5392432446552455
aF1.1777152953230017
aI2
aF0.48387690720104376
aF1.7690235652698085
aF1.604601144462021
aF1.2146752498635824
aF1.4633501988881958
aI2
aF1.7886512720654804
aF1.986983620396834
aF0.9326831287561141
aF1.2930593496577871
aF0.1
aF0.3761887151934563
aF0.1
aF0.5935431850978304
aF0.7733689493460664
aF1.3609084118810657
aF1.0420285746007378
aF0.7566425073000262
aF0.9148455140449991
aF0.1
aI2
aI2
aF1.2651322151908162
aF1.5690950310618348
aF1.053124014231952
aI2
aF0.15182123684331744
aI2
aF0.1
aF0.1
aF1.4131818854404536
aF0.6465649045402152
aF0.9687228646863979
aI2
aF1.2317139625041769
aF1.0674952858679483
aF0.2412494274202059
aF0.1
aI2
aF1.644574080853965
aI2
aa(lp35
g11
(g15
S'\x11\xdcGp\x1f\xc1\xe5?'
p36
tp37
Rp38
aI0
aaF3852.900955915451
aa(g11
(g15
S'\xeb\xc5|\xea\xc5|\xe2?'
p39
tp40
Rp41
I0
tp42
a(g11
(g15
S'\xf0\xc2A\xf4\xf8.\xe4?'
p43
tp44
Rp45
I0
tp46
asI2
(lp47
(lp48
(lp49
I72
aF0.147182308649905
aF0.21739710964035253
aa(lp50
F0.5
aI0
aaF39361.50772714615
aa(lp51
(lp52
F1.2034171082607745
aI2
aF1.5599335187021939
aF1.9881824857350205
aF0.1
aF1.254729699667584
aF1.5074832126590754
aF1.7823518413394352
aF1.4190446841647888
aF0.1
aF0.9698342489770544
aF0.6117027026607491
aF0.5669072858226617
aF0.1
aF0.1
aI2
aF1.2869164759743323
aF0.8572884376198088
aF0.1
aF0.1
aF0.25647152815176766
aF1.958988170346085
aF1.1828738760756936
aF0.5773845268211215
aF0.6476844121980633
aI2
aF1.9312077097530875
aF1.5441892290584538
aF1.2960177136460977
aF1.8564881287099946
aF0.6216879268635578
aF0.5639315452100168
aF0.5541851310263056
aF1.4964748114418807
aF1.3092109993526377
aF1.4643776606111976
aF1.1911893556929858
aF0.5293033160221232
aF0.6925412939362354
aF1.054786916760849
aF0.5710281524736074
aF1.7725023841976344
aF1.1987114497699356
aF0.8723526102162922
aF1.8254008282143461
aF0.6582466964495839
aF1.3632877998131412
aF0.8826248225984314
aF0.8359165989829219
aF0.1
aF1.6205021506185613
aI2
aF0.1
aF0.1
aF0.3180899630810803
aI2
aF0.587645616937272
aF0.7492155018988154
aF0.1552698799160004
aF1.9942846321357266
aF1.512549729217367
aF1.3670401206967857
aF0.9216975766836686
aF0.9406894031201896
aF0.16768375320003737
aF1.3859224028037462
aF1.8439860643876012
aF1.9170424349861026
aF0.3205052724307562
aF1.4416375451525385
aF0.6969314699546721
aF0.5804506858784256
aa(lp53
g11
(g15
S'\xf7[m\x0cMw\xe8?'
p54
tp55
Rp56
aI0
aaF1618.336331129074
aa(g11
(g15
S'M4\xd1D\x13M\xe4?'
p57
tp58
Rp59
I0
tp60
a(g11
(g15
S'\xcb:\xd0vo\x95\xe6?'
p61
tp62
Rp63
I0
tp64
asI3
(lp65
(lp66
(lp67
I74
aF0.7226769110132966
aF0.12727369885911813
aa(lp68
F0.5
aI0
aaF38503.170796871185
aa(lp69
(lp70
F0.6829648715004112
aF0.6631816566227621
aF0.9323767994044683
aF1.3554352336270366
aF1.0524871730565468
aF0.1
aF0.1
aF0.7082292504546854
aF1.2272053283702793
aF1.804407580575031
aF0.7318075489951115
aF0.1
aI2
aF0.1
aF1.5985661799504711
aI2
aF1.9454419860301981
aF0.8557689991145727
aF0.7423638018093062
aF0.3354848454248375
aF0.5200414956785443
aF0.9278985683458395
aF0.7042989768459912
aF0.8671520990605377
aF1.4004559464491595
aF0.38717056096570934
aF0.1
aF1.997260843170838
aF1.4591559881906573
aF0.1
aF1.292131049585521
aF0.8378247967724668
aF0.4861644116037276
aF0.48733968688535456
aF0.7928739928646478
aF1.6427095507303688
aF1.0623113654065173
aF0.46356309917460226
aF0.2871543757183235
aF0.1
aI2
aF1.694549721858549
aF0.853613391171889
aF1.525176984134509
aF1.0930802515604296
aF1.3289792834076442
aF0.7093350662984739
aF0.39156326622922116
aF0.4064076333262308
aF1.5283500319692356
aF0.14307543090406086
aF0.1
aF1.4381368803581875
aF1.81481783944679
aF0.22653965114537922
aF0.4116623517643445
aI2
aF1.7001859956995733
aF0.5740876227795473
aI2
aF0.1
aI2
aF0.1
aI2
aF0.1
aF0.8300152269123232
aF1.510289351395107
aF1.0101253907244787
aF0.3383444631779444
aF0.1
aF0.27963655334653736
aF0.6252440780488585
aF1.6571674267700092
aF1.5858581554202447
aa(lp71
g11
(g15
S'[\xac\x0c\xdf\x88\x02\xe3?'
p72
tp73
Rp74
aI0
aaF2352.956223011017
aa(g11
(g15
S'\xcb_\xf4\xf9\x81\x95\xe1?'
p75
tp76
Rp77
I0
tp78
a(g11
(g15
S'\xca\xd9-\xfcjL\xe4?'
p79
tp80
Rp81
I0
tp82
asI4
(lp83
(lp84
(lp85
I150
aF0.9804948738948855
aF0.01
aa(lp86
F0.75
aI0
aaF40371.93333697319
aa(lp87
(lp88
F0.9801859355525846
aF0.20632353013170016
aF0.44062600459576207
aF0.5301537759891927
aF0.4245485478862775
aF0.8369711838967351
aF0.2252370326960142
aF1.4599544613058808
aF0.6699733551222791
aF1.8751353598633438
aF1.64514241020631
aF0.5426389617366395
aF0.6446977578802565
aF0.7185464538517045
aF1.0881483852590332
aF1.6351939097588466
aF1.02426317031818
aF1.3071360155844305
aF1.2564497909616028
aF0.48922782372292406
aF0.30127856559582267
aF1.0234214145630431
aF1.9457412096363162
aF1.1597496618417882
aF1.3372120368537996
aF1.1029287400984653
aF1.3412701757883656
aF0.9694506890779084
aF0.9543591139790512
aF1.783300692268349
aF1.4936727380525534
aF1.2776016410569275
aF0.5621933824858262
aF0.8368199478256113
aF0.4885930507139198
aF0.3405863344587471
aF1.493738155734839
aF0.3516997192141945
aF0.7920647701250934
aF0.8650081355257737
aF1.7579592951879441
aF1.750381182810055
aF1.3285832696746784
aF1.2008198210455763
aF0.9037839088864438
aF1.3635693700478722
aF0.13822282527780108
aF1.270115813863448
aF0.43644016968356913
aF1.4050029753649105
aF1.5605321102995062
aF0.476334934509805
aF1.2982430325169214
aF0.8699145189784219
aF0.14486309295680616
aF1.0519308817883315
aF1.6989632202712608
aF1.5434041201126412
aF1.6816665940244115
aF0.31672799645515504
aF0.795635773036724
aF1.3967489395386823
aF0.49591609764976796
aF0.8401121218833817
aF1.3083603879321941
aF0.8130612984579709
aF1.7856835383423904
aF0.3146135372284234
aF0.6183988944341285
aF1.0971457530978983
aF0.8054775512822219
aF0.2696444451379434
aF0.4574129878167087
aF1.2945744165725699
aF1.883484254756573
aF1.8992906334976338
aF0.43907592308298804
aF0.3781439649273607
aF1.6703548411305786
aF0.7188107349545264
aF1.263439145304371
aF1.5644156812150123
aF0.10323914711459625
aF1.7576482066573247
aF0.3454904667381715
aF1.2608334011525033
aF0.6846609444150715
aF1.4967432722470613
aF0.41695145832467073
aF0.7143287880952306
aF1.7572947443031213
aF1.4018036837318626
aF0.1504465691072593
aF1.0984253711871708
aF1.2070862360770318
aF0.17039210472428057
aF1.9928448334336866
aF1.7232109515907952
aF1.8445065495952588
aF1.6075794269373493
aF0.9988715062090768
aF1.3857260314455435
aF1.3319597018348268
aF0.754412173197381
aF0.45214293005969575
aF0.42770702305504393
aF1.839960100762203
aF0.43750922858178865
aF0.6594300152161103
aF0.4491555637370389
aF0.965421115599906
aF1.3921021381159067
aF1.7125172096784715
aF0.8074618570498312
aF0.9870217617635334
aF1.9879884910022458
aF1.6740662828835307
aF0.7021118126918161
aF1.4577743061927115
aF1.4226299790981418
aF1.2890378292492453
aF0.4109806786817135
aF0.26469039528522165
aF1.1749487400527912
aF0.5464409499316084
aF1.2959762925262261
aF1.6515008257709898
aF1.8638799320352037
aF1.950513120296317
aF0.5228517626477736
aF1.1515639130603246
aF1.1052897524646728
aF0.9831302645904713
aF0.7438854267026572
aF0.9859756600934594
aF1.2898250417089485
aF1.559684176576273
aF0.6364893799994129
aF1.0572068840505742
aF1.4497710302209903
aF1.7414092689546763
aF1.234526918390076
aF0.7433399980719152
aF1.768460575458642
aF1.409025943244767
aF1.7782924205567423
aF1.1816734133451683
aF1.335655068937145
aF1.4639313570201242
aF0.35398300108738845
aa(lp89
g11
(g15
S'6\x98"\x9fu\x83\xd9?'
p90
tp91
Rp92
aI0
aaF7379.228785991669
aa(g11
(g15
S'\xc3\x86\r\x1b6l\xd8?'
p93
tp94
Rp95
I0
tp96
a(g11
(g15
S'\xb7t\xf2"]\t\xd8?'
p97
tp98
Rp99
I0
tp100
asa(lp101
g24
ag42
ag60
ag78
ag96
aa(lp102
g28
ag46
ag64
ag82
ag100
aaF218565.6387372017
as.