(dp0
S'SE3'
p1
(lp2
(dp3
I0
(lp4
(lp5
(lp6
F54.8
aF0.5616950581957815
aF0.8359302467934915
aa(lp7
F0.75
aI0
aaF4815.664469003677
aa(lp8
(lp9
F2.7043035871455583
aI1
aF2.3188268112738175
aI3
aF2.951456147115136
aF2.55317155143588
aF2.883922527053694
aF2.0303018571183467
aF1.1399526719679127
aI1
aF2.8776090167071198
aI1
aF1.5828464905878654
aF2.3078296230243667
aF2.4361314296307506
aF1.8881498509078682
aF2.7793231779472203
aI3
aF2.0105650690948473
aF2.9723033209931624
aF2.718046413667924
aF2.3229513076637476
aF2.1410407117403243
aI3
aF2.0541040662580796
aF1.8744795627498092
aF2.4767399935343217
aF2.4779488596923906
aF1.5089774229474289
aF1.4942504555185137
aF2.0424529041618826
aF2.1491436028190236
aF2.027818183921821
aF1.5075079274149297
aF2.0076703241386173
aF2.1745091709853024
aF1.3819416017055384
aF2.628856983899791
aF1.3991311251028293
aI3
aI1
aF1.9331392501164344
aF2.864413401427465
aF1.6996154698083719
aF1.7716375818614465
aF2.9459509036064224
aF2.0006765241879734
aI3
aF2.551743763776068
aF1.0248066491359233
aF1.454320474057595
aF2.2384524241180244
aI1
aF2.984307195704604
aa(lp10
cnumpy.core.multiarray
scalar
p11
(cnumpy
dtype
p12
(S'f8'
p13
I0
I1
tp14
Rp15
(I3
S'<'
p16
NNNI-1
I-1
I0
tp17
bS'v\x0f[\xdf\x06\x0c\xe1?'
p18
tp19
Rp20
aI0
aaF1006.7940900325775
aa(g11
(g15
S"j'y|\xb4E\xe0?"
p21
tp22
Rp23
I0
tp24
a(g11
(g15
S'#h8\xa9\xfb\xf2\xe0?'
p25
tp26
Rp27
I0
tp28
asI1
(lp29
(lp30
(lp31
I100
aF0.11079900905686867
aF0.9610983484545605
aa(lp32
F0.75
aI0
aaF5399.685812950134
aa(lp33
(lp34
I3
aF2.204692331437235
aF1.810672713855173
aF1.3005279233807194
aI3
aF1.0557502284152986
aF2.7722680369466284
aF2.053621153084737
aF2.0584600121434526
aI1
aI3
aI3
aI3
aF2.032338856331872
aF1.0543276143581566
aF1.622352232835061
aF2.500672860063214
aF2.694028019356073
aF1.4846992675737378
aF1.4721181280364175
aF1.2788413101542673
aI1
aI3
aI1
aI1
aF2.1975992920511316
aF2.640842555698312
aI3
aF1.9105274156343945
aF1.4438111219771945
aF1.6794833460606808
aF2.8858854161873477
aF1.5370485548143435
aF1.3301044493991303
aF1.1156434948478662
aF2.0109595605096167
aF1.5732740513586925
aF2.0499251585239713
aF1.6408741603956476
aF2.228496466073533
aF2.12018026017492
aF2.7397687627690863
aF1.2349009041799603
aI1
aI3
aF1.2180497447110623
aF2.4664483217103945
aF2.9932155292471325
aI3
aI1
aF1.169836095111873
aF1.9617349800170178
aF1.2357887122504456
aF1.7550077168895455
aF2.3398704432855495
aI3
aF2.4946979604228345
aF1.2859848541231644
aF2.3110543887263177
aI3
aF1.2638683228899787
aF1.2371135770402524
aI1
aF1.3583371389335608
aF2.3980476758999036
aF2.5739872133149224
aF2.8184972285302754
aF2.242190006034174
aF1.9557398338349359
aI1
aF1.0227851872694842
aF1.2534040295347357
aF1.2563903182329956
aF1.6309558705037266
aF2.916295946472653
aF1.284200854421752
aI1
aF2.3952981715865453
aF2.0961791767122615
aF2.4927661281470908
aF1.500183826846674
aF2.2602007015350507
aI1
aI3
aI3
aF1.1582169585507984
aF1.084742814329221
aF2.2492437926894224
aF1.7728335599149598
aF1.7975324472772056
aF2.6303170301621095
aF2.197009232385143
aF2.457320256777045
aF2.0071177658840096
aI1
aF2.533833601785754
aF1.057525504686221
aF1.8258287005540668
aF2.4792330619945098
aF1.1528587383626483
aa(lp35
g11
(g15
S'\xeap\x14\xfd$\xd6\xe4?'
p36
tp37
Rp38
aI0
aaF1403.119733095169
aa(g11
(g15
S'\xacZ\x18l6\x07\xdf?'
p39
tp40
Rp41
I0
tp42
a(g11
(g15
S'Xvk\x1c\x80?\xe2?'
p43
tp44
Rp45
I0
tp46
asI2
(lp47
(lp48
(lp49
F79.1
aF0.6851837465901123
aF0.9900021575140111
aa(lp50
F0.75
aI0
aaF5340.270660877228
aa(lp51
(lp52
F1.2854697981493501
aF2.4667708876118803
aF1.2421976084207407
aF2.3359560585985655
aF1.2262293342917383
aF2.4537511327855714
aF1.425570803554812
aF2.989344373285615
aF2.738525759511499
aF1.3328259250746655
aF1.186736640130444
aF2.055699951884605
aF1.7199902170801153
aF2.8782802168146304
aF2.3069620128317476
aF1.6377591037098118
aF1.8666276377888935
aF1.7051252634579792
aF1.0141843485606243
aF1.2195876871850724
aF1.753515032171709
aF2.1961868360865746
aF1.8804381657866955
aF1.7422714725728972
aF1.5904046999862391
aF2.5592103270104616
aF2.9357621773343845
aF2.031324692909698
aF1.0089877982865174
aF2.389778488357433
aF1.4131012265673417
aF1.734115060178074
aF1.6412767255312004
aF2.4974679852193296
aF2.6369980099325474
aF1.4356489379024329
aF2.4151428792206198
aF1.9738720154776517
aF2.830855920971695
aF1.4610249857892321
aF2.791697318953269
aF1.5242679466209552
aF1.7056741745582111
aF1.7649632382637854
aF2.636266327534129
aF2.596494526954813
aF1.6969102855622902
aF2.265531493869992
aF1.868740458997182
aF2.184654192645165
aF2.9665370178905386
aF2.50847948756749
aF1.0973252374852143
aF1.7254728720270798
aF2.924836529434351
aF1.3727898994000527
aF2.5339245423091565
aF2.3057017666436934
aF1.403489582677212
aF2.1922898370415993
aF1.2871180206584911
aF1.305787913965169
aF1.0203285648663118
aF1.562073033053777
aF2.3384203025137147
aF1.4308296741876758
aF1.181471742661177
aF1.153247248206968
aF1.8342406828223945
aF1.9629267158431383
aF2.244663940822983
aF2.393196839560029
aF2.629229791805699
aF1.3569585017096153
aF2.18138240209364
aF2.9594970026568532
aF2.9738575738235884
aF2.6125814928639324
aF2.629328240317246
aa(lp53
g11
(g15
S'\xa2\xdc7YJ\x13\xe0?'
p54
tp55
Rp56
aI0
aaF2153.269390106201
aa(g11
(g15
S'\x07\xcf\x11(\xdaj\xe0?'
p57
tp58
Rp59
I0
tp60
a(g11
(g15
S'I\xc3\x0f\xb2V\xd3\xdc?'
p61
tp62
Rp63
I0
tp64
asI3
(lp65
(lp66
(lp67
I50
aF0.7808305072055957
aI1
aa(lp68
F0.75
aI0
aaF4343.211227178574
aa(lp69
(lp70
F2.7706788259574995
aF1.4163784486770912
aF1.5433520142534758
aI1
aF1.4270879628411879
aF2.4396472340433766
aF1.9762071932373402
aF2.257398698207274
aF2.307171516812965
aF1.3206972304703675
aF1.0718738878016048
aF1.5341509876879824
aI3
aI1
aI3
aI1
aF1.4088396187113295
aF2.2014359135478765
aI3
aI3
aF2.0188853067666517
aI1
aF2.5512825912840125
aI1
aF1.9913459478543967
aF1.7398738323781713
aI1
aI1
aF2.910095175821097
aI1
aF2.643621608633686
aI1
aF2.6705271469900485
aF1.8608795965924918
aF1.5260630676711064
aI1
aI1
aF1.811131810475544
aF1.5681852231771969
aF2.0363609447675013
aI1
aI1
aF1.4884267443279133
aF2.7784844660045334
aI3
aI3
aI1
aF2.124645980495559
aI3
aF2.4390681185020413
aa(lp71
g11
(g15
S'\x03\xa3\xb3\xcd,\x12\xd7?'
p72
tp73
Rp74
aI0
aaF1527.6573960781097
aa(g11
(g15
S'\xd7\x04\xb2\xbb\x1f\x97\xd6?'
p75
tp76
Rp77
I0
tp78
a(g11
(g15
S'DaP\xcb\x89\\\xd5?'
p79
tp80
Rp81
I0
tp82
asI4
(lp83
(lp84
(lp85
F74.2
aF0.36240738292316077
aF0.8649764751190077
aa(lp86
F0.75
aI0
aaF4989.847046852112
aa(lp87
(lp88
F1.3434294884165616
aF1.9586531466576187
aF2.2400244461685968
aF1.0943719883140177
aF2.315932536519985
aI3
aF2.787664025520668
aF2.166212444912344
aI3
aF2.0847699201941405
aF1.6757797662836182
aF2.99810691644942
aI1
aF1.6346763358504606
aF2.231339355376908
aF2.4059997457550577
aI3
aF1.936547607252054
aF2.916717478484383
aF1.8010613830065938
aF1.1669399287937823
aF2.3759363656009658
aI3
aF2.5173521425250103
aF1.241156050333286
aF1.6603855330028345
aF1.5790940106843474
aF2.263946250471159
aF2.5316686990870636
aF1.9470379791617571
aI1
aF1.5256985044766038
aF1.8320094892900014
aF1.463826322234335
aF1.5056852856250607
aF1.222175346301409
aI1
aF2.4833095194316988
aF1.0466922970236059
aI1
aF1.3633881460818797
aF2.554663659347506
aF1.1087295765830136
aF1.9345265908142553
aF2.6078796016665637
aI3
aI1
aI1
aI1
aI1
aF2.1127849792373516
aI3
aF1.113213423520144
aF1.5608221902527266
aF2.1007947763772927
aF1.9776113270545623
aF1.6473455393545322
aF2.03326423302585
aI3
aF1.2442035494673391
aF2.9298575213067255
aF1.1798949117240587
aI1
aF2.440237670953643
aF1.922177364160918
aF2.9448442167630366
aF2.9289986438007656
aF2.670457624489387
aI3
aF1.0829143217254735
aI3
aF1.7051576475459758
aI3
aF1.524405105328321
aa(lp89
g11
(g15
S'\xd3 \r\xd2 \r\xe2?'
p90
tp91
Rp92
aI0
aaF1362.18865609169
aa(g11
(g15
S'>\xf8\xe0\x83\x0f>\xe3?'
p93
tp94
Rp95
I0
tp96
a(g11
(g15
S'Xe\xe7\xc1\x01)\xe2?'
p97
tp98
Rp99
I0
tp100
asa(lp101
g24
ag42
ag60
ag78
ag96
aa(lp102
g28
ag46
ag64
ag82
ag100
aaF32342.79750108719
as.