(dp0
S'rpg'
p1
(lp2
(dp3
I0
(lp4
(lp5
(lp6
I90
aF0.5179690671370292
aF0.8366474469274221
aa(lp7
F1.0
aI0
aaF2919.5090630054474
aa(lp8
(lp9
F1.0968231407870632
aF1.3297243367939546
aF1.2182156322117876
aI1
aF1.65050286956844
aI2
aI2
aI1
aF1.5010355846121635
aF1.6441191746189365
aF1.320611886936971
aF1.9066848487184613
aF1.5993408564515375
aF1.912246608763239
aI1
aF1.8805673883519487
aF1.355630992452538
aF1.770113353929205
aF1.3785641393079686
aF1.9011593847909583
aF1.8478587987534678
aF1.1793941016596687
aF1.2278512775543038
aF1.8600161773764177
aF1.9092538489343442
aI2
aF1.626269817890487
aF1.2478477850296732
aF1.2566744824309701
aI1
aF1.390502392679747
aF1.6672049013326098
aF1.4399082310472489
aF1.5936719172674332
aF1.66211333087394
aF1.3483076075646505
aF1.5653152173073002
aF1.289037091146087
aF1.2070468573316062
aI1
aI2
aF1.7253120300701221
aI1
aF1.8906946739436337
aF1.5652120935599805
aF1.4755416675005182
aF1.634604095295473
aF1.911395655687976
aF1.3839831551436026
aF1.8557555267969217
aF1.9444956725889009
aF1.3168498697356228
aI1
aF1.4217347871556247
aI2
aI1
aI1
aF1.0752188185078002
aF1.8295026515304234
aI2
aI1
aF1.7477447131666835
aF1.2835209746211447
aF1.8571004037319432
aI2
aI1
aF1.596802071037342
aI2
aI2
aI1
aF1.8091170165014279
aF1.304057531715167
aI1
aF1.7138297864296346
aF1.3473711103376909
aF1.17228250212119
aF1.5587697226803428
aF1.3592639356237473
aF1.6601595232195259
aI1
aF1.313719444197121
aF1.869447757423893
aF1.517076986899221
aF1.7722608681481462
aI1
aF1.6618036080553142
aF1.8595555643026433
aF1.010401739431864
aF1.930889956099259
aF1.974441360912258
aa(lp10
cnumpy.core.multiarray
scalar
p11
(cnumpy
dtype
p12
(S'f8'
p13
I0
I1
tp14
Rp15
(I3
S'<'
p16
NNNI-1
I-1
I0
tp17
bS'\x13Q]f5\x11\xd5?'
p18
tp19
Rp20
aI0
aaF126.5647759437561
aa(g11
(g15
S'\x95\xf5\x17\xfc\x88^\xd3?'
p21
tp22
Rp23
I0
tp24
a(g11
(g15
S'\xbbu\x98\xc62\xa3\xd3?'
p25
tp26
Rp27
I0
tp28
asI1
(lp29
(lp30
(lp31
I150
aI1
aF0.9097116711346459
aa(lp32
F1.0
aI0
aaF2878.83509016037
aa(lp33
(lp34
F1.0837268995500953
aF1.5804104969341903
aF1.816782298750458
aF1.3641858465682817
aF1.500170358295186
aF1.2443375779182388
aF1.4264332221538
aF1.2331066513465077
aF1.0143622765284233
aF1.3346856962518876
aF1.675483714827192
aF1.0689066810068928
aF1.4748335238613928
aF1.6622558242580472
aF1.6267822204066182
aF1.4220974355552063
aF1.644011627440401
aF1.7715502822065583
aF1.81291329293511
aF1.5099255687801305
aF1.9391276610463506
aF1.8134854033422387
aF1.1286484625089188
aF1.6925165522668248
aF1.2999089899034346
aF1.717899090765048
aF1.8583627792032829
aF1.23893409150935
aF1.7839170442061958
aF1.8875318891192427
aF1.7398696515319405
aF1.9461565235147265
aF1.620186169857508
aF1.3296896769183435
aF1.6272024037165314
aF1.1386472501639484
aF1.2555633866449516
aF1.6087508777776391
aF1.6940762524402626
aF1.8868968803678587
aF1.9909962460801252
aF1.6038227219748618
aF1.7477155895119272
aF1.3232402676210888
aF1.7086611369685825
aF1.1506543542665142
aF1.6446694509416593
aF1.2060865456591197
aF1.0271370527906973
aF1.5525010848219538
aF1.5215499690947372
aF1.4961958994787472
aF1.416934705164353
aF1.6019073976254163
aF1.2764030162141375
aF1.6060647308557496
aF1.0834313525506403
aF1.0468805427598176
aF1.3607240958963105
aF1.842535792082702
aF1.7180436298596897
aF1.0692418505410113
aF1.8710015844169932
aF1.7126005433561442
aF1.7492005186689328
aF1.8235679575441504
aF1.2275918974337887
aF1.5307165798673636
aF1.9281529842138347
aF1.5322667388433704
aF1.337594411171196
aF1.8363502644107288
aF1.6929776392130478
aF1.5469388090378662
aF1.43203459390234
aF1.8793824338231675
aF1.679067974217478
aF1.0274971314606658
aF1.8661733300404821
aF1.3783285647269174
aF1.2902326494156724
aF1.6122863760140769
aF1.7959018320010802
aF1.4344815985860317
aF1.7179285522278063
aF1.225905220419616
aF1.28718607284014
aF1.9552163875405073
aF1.413795168886976
aF1.2635692596065455
aF1.7519040631447838
aF1.6935557864554047
aF1.1625029230308184
aF1.8036711317895104
aF1.758434158368006
aF1.5349873134953629
aF1.2789267989571456
aF1.7706300788801328
aF1.431277010607123
aF1.1078780205480863
aF1.9755340575514335
aF1.0665214086350874
aF1.426012720906767
aF1.640535470549593
aF1.270056823141277
aF1.105438464242369
aF1.5097914849017435
aF1.6378182966933756
aF1.8694507732061356
aF1.4080223653134118
aF1.694563294338697
aF1.5415819544376306
aF1.6412783406393645
aF1.1490527426984245
aF1.1788711879993434
aF1.7526050635842445
aF1.2503194250821772
aF1.2894500409232834
aF1.5994705680795618
aF1.8895862472039826
aF1.4158832048678072
aF1.1472641680527529
aF1.9943751087886952
aF1.8054585961633063
aF1.0107939432875996
aF1.6868234922013117
aF1.981510429552837
aF1.9266744225251848
aF1.993142355079299
aF1.1451989035267283
aF1.1133834593982557
aF1.0405627381819578
aF1.5921972574157965
aF1.5194487620472157
aF1.8655108105892269
aF1.6912192808612612
aF1.4206127441814882
aF1.3485816598541267
aF1.24490877146622
aF1.519609378678949
aF1.2818903121558811
aF1.3841167009965862
aF1.936829813307741
aF1.5237877968010975
aF1.4697027470580715
aF1.5001247583502657
aF1.4092395215547424
aF1.1460497347107172
aF1.1164390177229013
aF1.8528992727562343
aa(lp35
g11
(g15
S'q\xd7\xc9R\xb5\x88\xd3?'
p36
tp37
Rp38
aI0
aaF216.38347387313843
aa(g11
(g15
S':Rg~\xc3\xcb\xd1?'
p39
tp40
Rp41
I0
tp42
a(g11
(g15
S'\x1a\x16q\t\xb4\x91\xd1?'
p43
tp44
Rp45
I0
tp46
asI2
(lp47
(lp48
(lp49
I100
aF0.7280279494055514
aF0.9732145237796119
aa(lp50
F1.0
aI0
aaF2795.6732230186462
aa(lp51
(lp52
F1.2435847705395862
aF1.1611737572555896
aF1.4622582322583402
aF1.6802445356778133
aF1.310138929042693
aF1.7171322226906276
aF1.3775416165100105
aF1.9115885601360683
aF1.2159360450302064
aF1.8275031382314357
aF1.916513391414955
aF1.5116387451806133
aF1.691362728128886
aF1.4801733887211632
aF1.4607462515732312
aF1.6472566534833395
aF1.190952299579764
aF1.3728195131080754
aF1.7100297615789748
aF1.5655263054408781
aF1.260829090882916
aF1.493811899692847
aF1.702192992478585
aF1.2886996717880592
aF1.8152816312563225
aF1.1926901705003838
aF1.261134633781678
aF1.44890811341678
aF1.831561729538275
aF1.2338385792520858
aF1.555511981212856
aF1.643890162270735
aF1.8359494421465898
aF1.898697045288906
aF1.6713345943498519
aF1.2235777152823641
aF1.0647844697234858
aF1.0690458594664327
aF1.129598726005826
aF1.356813057893963
aF1.4445905516276905
aF1.37828691151954
aF1.6952111699003147
aF1.6672598186937218
aF1.95857847774254
aF1.5335880303322287
aF1.2454560899341356
aF1.1966924764101607
aF1.2450377046442132
aF1.8874443777127459
aF1.3029703831187132
aF1.8893898790800912
aF1.3861720520859016
aF1.7973519714831012
aF1.300232899429475
aF1.7719505822776416
aF1.7618192038034064
aF1.6707293742113642
aF1.0799025810064427
aF1.5295696641223662
aF1.0613584028777083
aF1.575319672965077
aF1.7020079189474915
aF1.2275526646168031
aF1.6295436217161647
aF1.9096159049214543
aF1.3687614453730368
aF1.4747912944656627
aF1.1618327005023947
aF1.731541088255773
aF1.0494452051499477
aF1.4407959415400433
aF1.667925144167219
aF1.4574454275473172
aF1.1427702321369155
aF1.0700406150754935
aF1.133870386446351
aF1.5753549953271417
aF1.1112971819371051
aF1.5350962878138064
aF1.1706666963219226
aF1.2845601824932973
aF1.0202967991927383
aF1.146003946060265
aF1.243267319974887
aF1.3334504379023202
aF1.0477755381421134
aF1.056615345229512
aF1.5215592573755428
aF1.740506776452317
aF1.868696590167909
aF1.5999972207627091
aF1.5777000655034272
aF1.467008963260425
aF1.6465158604423809
aF1.0912703448310301
aF1.9770245162119122
aF1.6486150820957053
aF1.3364192717495316
aF1.192246589485936
aa(lp53
g11
(g15
S'Y\xed&\xd0\n\xc8\xd4?'
p54
tp55
Rp56
aI0
aaF139.32215404510498
aa(g11
(g15
S'U\xc2\xf4\x8e\x0b6\xd3?'
p57
tp58
Rp59
I0
tp60
a(g11
(g15
S'`\xa5Sw\xc16\xd3?'
p61
tp62
Rp63
I0
tp64
asI3
(lp65
(lp66
(lp67
I73
aF0.46350163760361995
aF0.9731007779866849
aa(lp68
F1.0
aI0
aaF2536.158663034439
aa(lp69
(lp70
F1.8809345702786486
aF1.1011851292130328
aF1.7172749692201337
aF1.7665010372400545
aF1.8977279653233419
aF1.220606575236365
aF1.174320824674818
aF1.2728856380542366
aF1.1172651605907007
aF1.0938551375555812
aF1.652622470852577
aF1.6106400720522132
aF1.3380229167288291
aF1.7721020909121439
aF1.4455095640486975
aF1.9883112670093466
aF1.3967211116249147
aF1.9679014818649754
aF1.9174893405182118
aF1.9252336696711185
aF1.0107579495628254
aF1.763877111908198
aF1.8882604481259153
aF1.039549247452106
aF1.1641924537434902
aF1.341023763871986
aF1.0943505241522118
aF1.9533602048524117
aF1.2193541453257872
aF1.3751483972717171
aF1.9739906357223576
aF1.7803455540612523
aF1.153719205120094
aF1.7806046112088794
aF1.6114301283577386
aF1.5300685715314288
aF1.8300160515373562
aF1.6399380542177049
aF1.3920433763354696
aF1.0790192567676546
aF1.1849471794567497
aF1.9716411209958848
aF1.4142445749458616
aF1.3512793545837263
aF1.6685678278634695
aF1.241977477299915
aF1.3952505719427561
aF1.4255655792830755
aF1.2242753828053248
aF1.8186889072151673
aF1.1270403626565595
aF1.4829455270632508
aF1.3211813259432288
aF1.3382556435420683
aF1.8984234103004405
aF1.2486225421999837
aF1.4506116351603562
aF1.6884814609288505
aF1.0012417660374244
aF1.5865805398019832
aF1.8623110280327204
aF1.5000565539790678
aF1.4811038494318383
aF1.799063358439184
aF1.4274127365458116
aF1.6959054085812033
aF1.9328051598702038
aF1.1630600268605311
aF1.414781904028915
aF1.5620207071313081
aF1.3744337543215035
aF1.0417240706100332
aF1.3800016924300138
aa(lp71
g11
(g15
S'\x8e\x8e\xf0\x05\xeaj\xd4?'
p72
tp73
Rp74
aI0
aaF101.0718400478363
aa(g11
(g15
S'!\xde\xae\xbawH\xd4?'
p75
tp76
Rp77
I0
tp78
a(g11
(g15
S'\xa1\x97\xbbb\\\xb7\xd4?'
p79
tp80
Rp81
I0
tp82
asI4
(lp83
(lp84
(lp85
F133.16
aF0.3055661790669151
aI1
aa(lp86
F1.0
aI0
aaF2693.89054107666
aa(lp87
(lp88
F1.5392569732901125
aF1.6085677363725082
aF1.9650494725559386
aF1.7134704111212402
aF1.384318210610239
aF1.5810268449651181
aF1.680520377610915
aF1.2581524288299482
aF1.6531254359872718
aF1.1459623687154499
aF1.8578654064120916
aF1.002237055384548
aF1.083291613521347
aF1.7488241014377237
aF1.0460774745346004
aF1.822847256770653
aF1.1072068628540983
aF1.3377300060531159
aF1.4549211422988897
aF1.6177981870348714
aF1.4680737777265116
aF1.1096120320266438
aF1.6231587698365462
aF1.4718559013703283
aF1.6592819420009093
aF1.6314208192072994
aF1.5512060760882032
aF1.0943916734788468
aF1.6946520388944961
aF1.290152168709168
aF1.8592330454191184
aF1.7772784206847938
aF1.1381204194341932
aF1.66717758949429
aF1.0193404010921827
aF1.0197227258370085
aF1.8629076885277112
aF1.3646083679522174
aF1.1259629939321347
aF1.4428972413952779
aF1.1275227626768562
aF1.817549347478593
aF1.1027964932967573
aF1.850490275799873
aF1.445104492443579
aF1.3067928045565043
aF1.2225244108386792
aF1.9368761156786443
aF1.4458047500620361
aF1.9114861817787876
aF1.5520961567564124
aF1.2543159040546317
aF1.4875651290298353
aF1.370396684116972
aF1.7277617659370759
aF1.645030128327622
aF1.2664564973873658
aF1.5214327243259433
aF1.3288792501799522
aF1.7469158449148012
aF1.0957566451823002
aF1.3957351400404758
aF1.9744629334481392
aF1.9874614610403554
aF1.5169783076437144
aF1.816140655378516
aF1.3285575787991006
aF1.2874490075815406
aF1.766518489169672
aF1.6537509117161469
aF1.1680620590996402
aF1.2024269698390913
aF1.0479643255548088
aF1.583237323603408
aF1.0914492672584193
aF1.0192768516857948
aF1.4760393902876583
aF1.001308622373696
aF1.2418905688722315
aF1.6423681104611385
aF1.442450302063122
aF1.6932389630719396
aF1.4198194237010786
aF1.0729407626816063
aF1.6619589641947679
aF1.3006396041802601
aF1.059297276894662
aF1.7243597082964883
aF1.2527025465447383
aF1.7191276151888155
aF1.862884746411606
aF1.5904435726629305
aF1.7660858530080081
aF1.1343675581612365
aF1.812455279223308
aF1.146692609276207
aF1.8822429893326076
aF1.828373821473911
aF1.5303357098871107
aF1.6250127188344534
aF1.2910114709164462
aF1.7557773461847423
aF1.713971842426556
aF1.9226631245928105
aF1.5194557107079918
aF1.869745921683227
aF1.7384582310353527
aF1.531241186798602
aF1.6814460997751786
aF1.0578202041874682
aF1.5340961745182233
aF1.308625494190253
aF1.271517429171965
aF1.3985298233703802
aF1.821406352869709
aF1.7960860626277024
aF1.3949473385116868
aF1.6247727448951452
aF1.1573771552730159
aF1.1857045754873483
aF1.8348639374134728
aF1.4279835774128151
aF1.6053851471603786
aF1.4321828818044398
aF1.6666587581396286
aF1.3719093395893927
aF1.465020155025794
aF1.2322178593889905
aF1.7000332584792521
aF1.7228753492697813
aF1.0673004146387282
aF1.4471234796061165
aF1.990757667511819
aa(lp89
g11
(g15
S'\xc4\xc1\xfb\xd6\xc8\xea\xd2?'
p90
tp91
Rp92
aI0
aaF177.16697692871094
aa(g11
(g15
S'\x10Cuj\xe8D\xd3?'
p93
tp94
Rp95
I0
tp96
a(g11
(g15
S'\xd9\xbcp\xdf\x0fU\xd3?'
p97
tp98
Rp99
I0
tp100
asa(lp101
g24
ag42
ag60
ag78
ag96
aa(lp102
g28
ag46
ag64
ag82
ag100
aaF14585.019434213638
as.