(dp0
S'SE0'
p1
(lp2
(dp3
I0
(lp4
(lp5
(lp6
I85
aF0.4257506912776562
aF0.9232649127549207
aa(lp7
F1.0
aI0
aaF764.9134981632233
aa(lp8
(lp9
F1.083523373708295
aF2.3698662477834174
aF1.335908342706952
aF2.3959469713642836
aF1.8177427750817357
aF2.233819034089394
aF2.795495602728998
aF1.4115353672135746
aF1.6427632119240545
aF2.9523170471606615
aF2.0375474403462137
aF1.591081566918034
aF2.2894821652061066
aF1.7425647479523654
aF1.1851089659935814
aF1.3176541971480482
aF1.1781721204690447
aF2.4232461157727174
aF1.9778738185154259
aF2.6868550885649056
aF1.2338997034699468
aF1.3193109428186898
aF2.0526280418558978
aF2.143852135104019
aF2.088680007082384
aF2.3518120129295577
aF1.1864878961237606
aF1.2232279048697958
aF2.312066460262306
aF1.7366509189006685
aF2.2716528637668345
aF2.6692829036648744
aF1.5271614508548934
aF2.8250051194004353
aF2.4387869209159345
aF2.079857151117765
aF2.6671047517149296
aF1.1852762631166642
aF1.3385463134358608
aF2.284239366740498
aF2.68451891635202
aF1.7250390635510109
aF1.0818031749437151
aF1.8987353507530915
aF1.029541818861465
aF1.3063044779154216
aF1.5235334179167188
aF1.5497260772979682
aF1.81472353255834
aF2.033158361389822
aF1.0869287616028571
aF1.3558204517997796
aF1.1331475071266701
aF1.3299358039060605
aF2.1374187979385098
aF1.8810841397946945
aF2.217402419134826
aF1.1828957932694149
aF2.005927626080066
aF1.5303363116868853
aF2.628051820386844
aF2.89923265997169
aF1.447862204592272
aF2.7385704635658517
aF1.333724169514101
aF1.9282184752512674
aF2.35434283685138
aF2.9783315998272952
aF2.139483438193058
aF1.8656525997295743
aF1.0285933902443891
aF1.909724241442628
aF1.2685504030009314
aF2.1104421592299865
aF2.3732346653987237
aF1.6762290437987966
aF2.7686596465761326
aF1.0886422885450189
aF1.600762150107797
aF2.3590458356449386
aF2.454545385680527
aF1.5976247153056906
aF1.4663473494080264
aF1.8163580150031629
aF2.4405544423431262
aa(lp10
cnumpy.core.multiarray
scalar
p11
(cnumpy
dtype
p12
(S'f8'
p13
I0
I1
tp14
Rp15
(I3
S'<'
p16
NNNI-1
I-1
I0
tp17
bS'\xac\x8d\xa1\xe9\x0e\xf6\xeb?'
p18
tp19
Rp20
aI0
aaF18.843894004821777
aa(g11
(g15
S'2\xb0\xd3\xb0\x12M\xeb?'
p21
tp22
Rp23
I0
tp24
a(g11
(g15
S'\xa7eS\x9f\x80:\xeb?'
p25
tp26
Rp27
I0
tp28
asI1
(lp29
(lp30
(lp31
I100
aF0.8799262454822363
aF0.7922647818752074
aa(lp32
F1.0
aI0
aaF901.2417180538177
aa(lp33
(lp34
F2.4551088506960927
aF1.2209746974817222
aF2.4310653683916748
aF2.2902638209833723
aF2.9543493608079396
aF1.0846054347328395
aF1.8040657681521235
aF2.948216775394207
aF2.9049231746586983
aF2.454558794746648
aF1.948816456958016
aF2.405928484255865
aF1.9260891890032912
aF2.331309994719879
aF2.623358378720922
aF2.1837857973872654
aF2.800875836962846
aF1.2576439748658277
aF2.3390161542203534
aF1.2439081254595001
aF1.9552510483369085
aF2.3944279836738533
aF1.9441340618350675
aF1.2998188703178977
aF1.2204378010731516
aF1.460415662187591
aF1.1361410960384823
aF1.4898581463408447
aF1.4486771394664777
aF2.621001397175644
aF2.2152116424193444
aF1.4557636812304517
aF2.634874924144797
aF2.9863702021739353
aF2.2514424032782268
aF2.8070918788416552
aF1.0376784456548371
aF2.3271067071629545
aF1.9606511741055952
aF1.5454076514157988
aF2.1466935595294236
aF2.1576614683050463
aF2.3959258295517403
aF1.6746852799099794
aF1.8391816723376986
aF1.227895899297275
aF1.4260202210391246
aF2.222535742520119
aF1.1808207490261853
aF2.251529753268541
aF2.0314409912446383
aF2.82667729136818
aF2.980369864897099
aF1.3756661895003706
aF2.7953635984587586
aF1.155139371026696
aF1.5740277789462667
aF1.649215351273531
aF2.7111397497694822
aF1.52076140426303
aF2.2459011002009914
aF2.238526175837749
aF2.3092785345308107
aF2.3615051207063043
aF1.4273861911292876
aF1.61509772415503
aF1.5239362706455015
aF1.4393440729085272
aF1.8585824108233882
aF1.6755940089449821
aF1.7460642504600978
aF1.8164872087746657
aF1.4744263674968925
aF2.803529523498064
aF2.7501364686814203
aF2.8327154788014193
aF1.9380163405079969
aF1.061963734021519
aF2.716193339704592
aF2.169599050195103
aF2.6514091636635495
aF1.2514137435202988
aF2.814290589610187
aF1.4096425221764122
aF1.7337899605446554
aF2.0804941075418015
aF2.8056305006333027
aF1.5176372193144663
aF2.993557160527221
aF1.6563619041417923
aF2.7774119900291807
aF1.1222911360542096
aF1.2709893402851458
aF2.0744049533422446
aF2.610353067977555
aF2.565708264813338
aF2.2142847675208066
aF2.3105009585011462
aF2.2365304681610962
aF1.4233110722933375
aa(lp35
g11
(g15
S'\xe5Z!\xc8\xb0$\xec?'
p36
tp37
Rp38
aI0
aaF39.888795137405396
aa(g11
(g15
S'e\xae\x94\xdf\xd8f\xe4?'
p39
tp40
Rp41
I0
tp42
a(g11
(g15
S'\xe4<\x98|\xb7\xca\xea?'
p43
tp44
Rp45
I0
tp46
asI2
(lp47
(lp48
(lp49
I79
aF0.5941217242502549
aF0.6347537690639463
aa(lp50
F1.0
aI0
aaF832.3641409873962
aa(lp51
(lp52
F2.934820346993689
aF2.262858475318169
aF2.874353133952793
aF1.467231412168723
aF1.6285575676021995
aF1.273765935425321
aF2.063879218875522
aF1.477152692210219
aF1.909570742835633
aF2.0461894037915496
aF2.9686234378307743
aF2.112206110307743
aF1.438221238642774
aF2.032019552155096
aF1.161463752751297
aF2.669089989349315
aF2.3296043096500867
aF1.3564396162481556
aF1.8849551712645447
aF2.812689390582295
aF1.9135855700949105
aF1.092474607800296
aF2.330092728326453
aF1.3900547148596352
aF2.1045390333739853
aF1.107632639932227
aF1.9252379839706906
aF1.8447318646661206
aF1.5051912905374036
aF2.7608850418586544
aF2.295011682169126
aF1.7330827453162392
aF2.474378826178985
aF2.0088874597467337
aF1.075011851225291
aF2.97556404507519
aF1.1683400477381014
aF1.7665358959687105
aF1.0795245279924153
aF2.431832917098077
aF1.0066169464245924
aF2.0828352494600395
aF1.496294923860815
aF1.2841372646368723
aF2.8409369216922142
aF2.0259888534614987
aF2.8199529326876456
aF1.3879043620660922
aF1.2151419292313113
aF1.3416175253879044
aF1.408047580874954
aF2.2601788983439786
aF1.2615074657887975
aF1.889452516059522
aF1.5144951743091473
aF2.472328730634781
aF1.7562995110022503
aF2.009129109414963
aF1.356775020802118
aF2.974077586095322
aF2.1399128615112444
aF1.7188326074658622
aF2.428189077830466
aF2.6137021458174257
aF2.5796863259741185
aF2.3763187799185337
aF2.9944260930894293
aF1.8725777945063395
aF2.3757291019143163
aF2.314841115722577
aF1.9058601110776787
aF1.414729705774509
aF1.1199053090101279
aF2.217184014229451
aF1.7946648983160092
aF1.6148002662923073
aF1.0940116347149786
aF2.2068578502121747
aF1.4323196805993095
aa(lp53
g11
(g15
S'\xf2y\x9d\x01\xd6C\xec?'
p54
tp55
Rp56
aI0
aaF22.205605030059814
aa(g11
(g15
S'y\\\xbcl\x03\xf4\xe9?'
p57
tp58
Rp59
I0
tp60
a(g11
(g15
S'\xbd\xe9Moz\xd3\xeb?'
p61
tp62
Rp63
I0
tp64
asI3
(lp65
(lp66
(lp67
I77
aF0.7271601680479794
aF0.9436654195460654
aa(lp68
F1.0
aI0
aaF825.9942200183868
aa(lp69
(lp70
F2.5888049450374933
aF2.8626315497658155
aF2.753351095093106
aF2.790618365514876
aF1.5999833889338686
aF1.5154047583412467
aF1.6730197048833277
aF1.67519306400987
aF2.1938909313240504
aF2.6558040099744873
aF2.681370551826954
aF2.4765354759741873
aF1.5120159975527494
aF2.4895765476816734
aF1.711820388324279
aF2.3962855069736304
aF1.319638418034791
aF1.405903557147636
aF2.4997333023161192
aF1.084977710244597
aF1.0673673752161335
aF1.5507147024677481
aF2.540474389835972
aF2.506123971640721
aF2.290349308093778
aF1.2264564575101695
aF2.9119454615480977
aF2.096967492462637
aF2.6227213471193602
aF2.1894716735197575
aF2.495529798984078
aF1.6904037109290255
aF2.4064704261528407
aF1.7917208388959467
aF1.6903690718077202
aF1.1020129092005466
aF2.482706360037133
aF1.2696622214352875
aF1.9958874440978494
aF1.6905806955117761
aF1.0172560773340853
aF2.454660598048466
aF2.504276613918633
aF2.3240219095800283
aF1.7115758672561414
aF1.4474692562521299
aF2.2380717443590523
aF1.1338865846861534
aF1.310844928724602
aF1.6129970547445245
aF1.5363405823112348
aF1.6183676740567057
aF1.8637123377933005
aF2.830773661243865
aF1.4589583266373538
aF2.8713368105421626
aF1.1087172072906404
aF2.9044111929972973
aF1.5528746510905076
aF2.710972356474408
aF2.355716829524906
aF2.870874261008929
aF2.44392924571248
aF2.217204537734534
aF1.6258718404085202
aF1.5939681419814533
aF2.352148995277731
aF2.921946106274997
aF1.9055865703771528
aF2.7147759557598223
aF1.2133321853382277
aF2.8933276779393613
aF2.1749638445480977
aF2.6353874203492067
aF1.5111694298407745
aF2.8107041973159186
aF2.569894400897261
aa(lp71
g11
(g15
S'\xe5Z!\xc8\xb0$\xec?'
p72
tp73
Rp74
aI0
aaF22.02688193321228
aa(g11
(g15
S'\xa4\xa1\xfb`\xfd\x06\xe8?'
p75
tp76
Rp77
I0
tp78
a(g11
(g15
S"\xe8\xb3'\xe0&f\xeb?"
p79
tp80
Rp81
I0
tp82
asI4
(lp83
(lp84
(lp85
I84
aF0.39202293028493607
aF0.4792606185514304
aa(lp86
F0.75
aI0
aaF863.4527251720428
aa(lp87
(lp88
F1.987865024063594
aF1.9792660823536121
aF1.1624004781368347
aF1.9846116506725826
aF1.5247622492821815
aF2.3258317877383377
aF1.4075322364942253
aF2.4189093478402452
aF2.462978313706018
aF1.4711903156042299
aF1.8279386130346023
aF2.3148753677848353
aF1.7790290509305107
aF1.5235869004395666
aF1.7193865031570892
aF1.2920824606484924
aF1.993380523089089
aF1.1019489583930246
aI1
aF1.3482117014505042
aF2.00004838487598
aF1.4873325973411284
aF1.7451981478186323
aF2.3617111779376394
aI3
aF1.59300364022962
aF2.2064885705940833
aF1.0410948377333742
aI1
aF1.923190618268579
aF1.4784843868281081
aF1.1025788482480072
aF2.0251174626675077
aI1
aI1
aI1
aI3
aF2.820737755375501
aI3
aF2.199982322860281
aI1
aF1.5006563992949689
aF2.371689345191785
aI1
aI1
aF2.3562026982061153
aF1.486569831496908
aF1.547139840201401
aI3
aF1.639941249561234
aF1.9800225266887286
aF1.704607927563336
aF1.003462202804201
aF1.8249194661217376
aF2.9580221454560425
aF1.6045576249011224
aF1.6562390974675532
aI1
aF1.8873909830377347
aF1.688622309314826
aF2.1260344422845936
aF2.165283632764145
aF1.7878934694469149
aF2.8866194967570684
aI1
aF2.506573313259045
aF2.8425066925771576
aF2.143438258671267
aF1.738337564826269
aI3
aF2.286762147749026
aF1.0207837185001136
aI1
aF2.1262952976080647
aF1.0649445018264012
aI1
aF2.543436621922763
aF2.7200825990990083
aF1.4768862656275612
aF1.581320298408481
aF2.6126697771499017
aF1.2262240387959857
aF1.8069435941211516
aF1.6627343212861265
aa(lp89
g11
(g15
S'^\xd7u]\xd7u\xed?'
p90
tp91
Rp92
aI0
aaF21.486359119415283
aa(g11
(g15
S'\xf8#\xa7\xf9Z=\xeb?'
p93
tp94
Rp95
I0
tp96
a(g11
(g15
S'B\x12\xb4\x1eF\xbf\xeb?'
p97
tp98
Rp99
I0
tp100
asa(lp101
g24
ag42
ag60
ag78
ag96
aa(lp102
g28
ag46
ag64
ag82
ag100
aaF4312.51087808609
as.