(dp0
S'SE3'
p1
(lp2
(dp3
I0
(lp4
(lp5
(lp6
I81
aF0.7937089018390153
aF0.7926048383328966
aa(lp7
F0.5
aI0
aaF10966.208065986633
aa(lp8
(lp9
F1.5037324712414633
aF1.7928816559382046
aI2
aF1.874424001371548
aF1.8950411697363745
aI2
aF1.9557086102577654
aI1
aF1.3159380447752103
aI1
aF1.5443597665856168
aF1.345969657973133
aF1.5381633957420706
aF1.616895531175904
aF1.0036010673929925
aF1.7047129007616917
aF1.8239061620842387
aF1.6630884914335622
aF1.7928737191939819
aF1.0868128596340914
aF1.54207308433161
aF1.4508120852199546
aI2
aF1.5271184807066918
aI2
aF1.5507961977355111
aF1.031271154782264
aF1.794167537052632
aI1
aF1.5489078338098818
aI1
aI1
aF1.0842582406251973
aF1.5277208352740097
aF1.0084811900331843
aF1.4047450052554034
aF1.6327089203339598
aI1
aF1.7752240239273291
aF1.3020231515691219
aF1.6502971525556114
aF1.326339648710879
aF1.8345100766409381
aF1.7977402986964042
aF1.3191346707287759
aI1
aF1.2256305845915307
aI2
aF1.935240054099151
aI2
aF1.8659228914632933
aF1.0508715407817737
aF1.5651164043723027
aF1.0647346458111833
aF1.3837686119454675
aI2
aF1.9497147978953908
aF1.733548294484878
aF1.4803093894130868
aF1.794759456924682
aF1.8693465720997875
aI2
aF1.3155490207424883
aI1
aF1.2379524232027745
aF1.4448845384379205
aI1
aF1.0966020876420377
aI1
aF1.8520725023927176
aF1.9796449696870964
aF1.0093248909448715
aF1.8902155880415878
aF1.3439561121910644
aF1.5868133579598185
aF1.4100574085159006
aF1.8099710476035245
aI2
aF1.0503919636020767
aI2
aF1.5885283573416789
aa(lp10
cnumpy.core.multiarray
scalar
p11
(cnumpy
dtype
p12
(S'f8'
p13
I0
I1
tp14
Rp15
(I3
S'<'
p16
NNNI-1
I-1
I0
tp17
bS'\xf6\x85\xc2\xb4}\xa1\xe0?'
p18
tp19
Rp20
aI0
aaF1588.9636409282684
aa(g11
(g15
S'\xec\xb7\xda\x18\x9a\xee\xe0?'
p21
tp22
Rp23
I0
tp24
a(g11
(g15
S'>mT-\xd0\x01\xe0?'
p25
tp26
Rp27
I0
tp28
asI1
(lp29
(lp30
(lp31
I90
aF0.239333806764581
aF0.9651121162128716
aa(lp32
F0.75
aI0
aaF9880.926999807358
aa(lp33
(lp34
F1.7187351763456384
aF1.4607093774345814
aF1.4953406745967086
aF1.7245232529247003
aF1.0234769749427257
aI2
aF1.4703355664053797
aF1.5337438518655766
aF1.965394630432667
aF1.1876770236155283
aF1.1473101917806883
aF1.0390833045271095
aF1.7913932020552423
aF1.2565100878700146
aF1.0746850460266204
aF1.1310727249307377
aF1.4503765226235166
aF1.245015933526112
aF1.8147147807629689
aF1.824070671004628
aF1.662557027356991
aF1.5597059750409112
aF1.4569904056417184
aF1.5295076402250474
aI2
aF1.501359251834449
aI2
aF1.6571599383946098
aF1.7135096626461879
aF1.0730750891469714
aF1.390648279889676
aF1.421132985730335
aF1.7064392229871375
aF1.1685636764731093
aF1.019693366275999
aF1.2559919533458852
aF1.804291359233904
aF1.9725947108695991
aF1.2517518836983441
aF1.704896534113527
aI1
aI1
aF1.8746652090868805
aF1.6347130125101308
aI2
aF1.080562383948128
aF1.8670429876417451
aF1.1446683380121343
aF1.3980819240617375
aF1.8497342431218666
aF1.7283526146309554
aF1.6142707588004273
aF1.3136000986882377
aF1.5598930888357807
aF1.1433330126273233
aF1.1010827195532888
aF1.3417462593900167
aI2
aF1.3121738667994145
aF1.6178711945485533
aF1.3503639823515154
aI2
aF1.4379048227502524
aF1.43617707129558
aF1.9029906905633942
aF1.627068657704398
aI1
aF1.4447185201567116
aI1
aF1.7557289792861346
aI2
aF1.0404861458074248
aF1.956172402594103
aF1.6353436482718882
aF1.3096796715026586
aF1.5493563894819797
aF1.3386309208738347
aF1.1916764821905679
aI1
aF1.5659555018808144
aF1.824189678842113
aF1.7731014510637118
aF1.891639255488148
aI1
aF1.7952925068215568
aF1.3791022391838534
aF1.1342568745137753
aF1.2229954414042599
aI2
aF1.0172040365806558
aa(lp35
g11
(g15
S'\x9c\x9fJ\x08\xc8\xf9\xe1?'
p36
tp37
Rp38
aI0
aaF943.2189109325409
aa(g11
(g15
S'\xad\xf3\xc6\x92\x00V\xe4?'
p39
tp40
Rp41
I0
tp42
a(g11
(g15
S'2\xad\xe1k\xf1\xae\xe4?'
p43
tp44
Rp45
I0
tp46
asI2
(lp47
(lp48
(lp49
I85
aF0.28349832748269943
aF0.6361636505047324
aa(lp50
F0.5
aI0
aaF11021.247068166733
aa(lp51
(lp52
F1.3950839687822036
aF1.8846983585299926
aF1.4283608915191897
aF1.4100833157800214
aF1.5520077285268323
aF1.7231457144054345
aF1.4022408512074505
aF1.18353207881334
aF1.730930324358472
aF1.697138748288435
aF1.5043158663598146
aF1.4672985867204154
aF1.231569071876725
aF1.5084910127392606
aI2
aI2
aF1.2753361044322056
aF1.5635391317172467
aF1.7559726060965783
aF1.821344668533854
aF1.5254905363843163
aF1.2579157108513108
aF1.5250072290429366
aF1.3629097013257194
aF1.4276113603567697
aF1.608134568818604
aF1.716732440058317
aF1.5303221511123792
aF1.9131777791693592
aF1.405127885114569
aI2
aI1
aF1.560893092196659
aF1.794572979481559
aI2
aI1
aF1.8572281043234036
aF1.7610121968494794
aF1.6822356962244966
aF1.0937223407766856
aF1.6560938512421992
aF1.6105998026920454
aI1
aI2
aF1.7108055258602923
aF1.46501066628555
aF1.4916378625786926
aF1.3941950789202888
aF1.3451412691355882
aF1.1985316886427202
aF1.5885037462582288
aI1
aF1.802646586653402
aF1.542888227302779
aF1.2819839071227226
aF1.3303136325713085
aF1.2512123016866918
aF1.548513256277943
aF1.7352649035214225
aF1.1812699604557373
aI2
aF1.7063244259024455
aF1.7257998261645129
aF1.4113063178891907
aI1
aF1.1275595553513766
aF1.3215343082098316
aI1
aF1.309393028352982
aF1.2326219621287555
aI2
aF1.9792038787823834
aF1.2188757090132925
aF1.6551547963236897
aF1.506280497844065
aI2
aI2
aI1
aF1.3906023534786713
aF1.6384387317038724
aF1.2019004949990444
aF1.8527153794194835
aF1.9165459099892725
aI1
aI1
aa(lp53
g11
(g15
S'\n\xf6l\xeeeJ\xdd?'
p54
tp55
Rp56
aI0
aaF1274.6925840377808
aa(g11
(g15
S'\xd7\x86\x10\x03\xcc\xe8\xdb?'
p57
tp58
Rp59
I0
tp60
a(g11
(g15
S'=\xe6\xb4\xb2\x1e\x18\xdc?'
p61
tp62
Rp63
I0
tp64
asI3
(lp65
(lp66
(lp67
I150
aF0.4394015362164749
aF0.8978390613995505
aa(lp68
F0.75
aI0
aaF11626.069094896317
aa(lp69
(lp70
I1
aF1.3003609748973735
aF1.6308668952422956
aF1.8605839488139921
aF1.8316749408331874
aF1.2432753580453006
aF1.0910610493239277
aI1
aI1
aF1.4164443810412728
aF1.4218626971477744
aF1.5044956867024235
aF1.2360187294692913
aF1.9353277521510424
aF1.5249361853123211
aI2
aF1.3127762811342425
aF1.7215540703115777
aF1.491320040853234
aF1.5468769906587956
aF1.2002820228577835
aI2
aF1.6615307246558617
aF1.5692943670495296
aF1.3735421207281822
aF1.1503055043300225
aF1.4118384896159415
aF1.1408809418910584
aF1.7008267800064476
aI2
aF1.4486423359211629
aF1.3579617590710484
aF1.3963103709974978
aF1.1425574315119043
aF1.5782680292685343
aF1.0272009906302448
aF1.6201794030387486
aF1.0256779452586395
aI2
aF1.5041729618767579
aF1.0446590495611656
aF1.4467230631648567
aF1.9350607285697012
aF1.390145049172284
aF1.1464544860770276
aF1.585937230268173
aF1.2136080314120432
aF1.1933595263882393
aF1.6162988936696605
aF1.615604956915165
aF1.2433931412638288
aI1
aI2
aF1.3887016680904414
aI1
aI1
aF1.5602378844806641
aF1.537338659688262
aF1.347653425912702
aF1.4579540768060908
aF1.9671075193009335
aF1.5952626614304288
aF1.629240440424968
aF1.0904190268853458
aF1.4405469743790926
aF1.5846099373678522
aF1.027036472737983
aF1.3353579549246768
aF1.5099135082276645
aI2
aF1.2756048587477966
aF1.392664548223615
aF1.298429865918442
aF1.4489894147210443
aF1.547765320416921
aF1.1282893748220462
aF1.8061129697744236
aI2
aI1
aF1.3232578857148072
aF1.3609372503204438
aI2
aF1.362089697875729
aF1.6084722628426784
aF1.4661843151106833
aI2
aI1
aF1.3386857525508158
aF1.8035750024565413
aF1.456655982687352
aI1
aF1.0755601005190925
aF1.2121380487570776
aF1.11104491140896
aI2
aF1.9167513902632551
aF1.4968354362425575
aF1.5376443645582
aF1.217543852132466
aI2
aF1.141654779642499
aF1.4757337230988257
aF1.4996374526644651
aF1.2644520095229168
aF1.1818332852716604
aI1
aF1.3260818905384422
aF1.4495588037542604
aF1.077626924297036
aI1
aF1.5135638868002685
aF1.6966357679586397
aF1.5507128767817129
aF1.2245651752138238
aI1
aF1.3561820138825547
aF1.569064688756345
aF1.8979470153149656
aF1.9885398913168817
aF1.2070754906440433
aF1.4066512194013305
aF1.8524432994759221
aF1.6259190718322336
aI2
aF1.803023418524909
aF1.9522877669189957
aF1.2509689321881046
aF1.5345327956927637
aI1
aF1.4504842210496411
aF1.6337520604395623
aF1.3330333600558786
aF1.7442090572628117
aF1.5748465701496703
aF1.4190793280792047
aF1.2990709708168453
aF1.6401021450382185
aF1.2700581066676235
aF1.3369260201789483
aF1.5226858987956975
aI1
aF1.2556473331713482
aF1.837884024779725
aF1.9029813391024217
aF1.783555009846424
aF1.0182444952360505
aI2
aI1
aI2
aF1.4729334345589842
aa(lp71
g11
(g15
S'\xfc\xc6dX>\xe4\xdd?'
p72
tp73
Rp74
aI0
aaF4190.927758932114
aa(g11
(g15
S'\x0b\x85\xdd-!>\xdb?'
p75
tp76
Rp77
I0
tp78
a(g11
(g15
S'\xc1\xe1\xfc!\xa7H\xdb?'
p79
tp80
Rp81
I0
tp82
asI4
(lp83
(lp84
(lp85
I128
aF0.26082178411787266
aF0.898410663877706
aa(lp86
F0.75
aI0
aaF12234.241393089294
aa(lp87
(lp88
I2
aF1.5510053886033648
aI1
aF1.1124291744530885
aF1.1737684703734006
aI1
aF1.0195859059858021
aF1.865128421011153
aF1.3211931362048936
aF1.6874874851974029
aF1.5692170655925097
aI1
aI1
aF1.3633462408442183
aI2
aI1
aF1.2509934050721654
aF1.7830319581954857
aI2
aF1.2716061120607058
aF1.2973456938940586
aF1.0963790152671236
aF1.2873842715435044
aI2
aF1.0914091394118073
aF1.2297080289560753
aF1.0268510478910857
aF1.3328967139711518
aF1.1248291724619444
aF1.3635143871862088
aI1
aF1.1529316704515027
aF1.4989112511842928
aF1.9780980192461228
aF1.017537890951836
aF1.495133214477219
aF1.6403458183227009
aF1.6151800884251777
aI2
aF1.3996289648064804
aF1.2738964243701718
aF1.360096934974946
aI2
aF1.5363023910992553
aF1.0483528567293163
aI1
aF1.556446083971197
aF1.457776784400266
aI2
aF1.9392213706478145
aF1.6059238625926566
aI2
aF1.5219790437557452
aF1.3070326956155751
aF1.7623513292743618
aF1.418913519248519
aI1
aF1.7785813316259804
aF1.902512059328247
aF1.4668744151845037
aI1
aI1
aF1.4608443214685778
aI2
aF1.9163795757107964
aF1.7035377024876817
aF1.1893673676543863
aF1.681223625988564
aF1.5764133495326633
aF1.0304467821280183
aF1.152294145489361
aF1.0553412206133126
aF1.5423408270346766
aF1.004190026700529
aI1
aF1.693864753045721
aF1.4776255179697049
aF1.4989914763531724
aF1.861633526090813
aF1.7283741315867225
aF1.4763392913620077
aF1.441201919414259
aF1.4224447470929766
aF1.3995685169616485
aF1.1980381569723177
aF1.6180433532605851
aF1.763008354148709
aI1
aF1.889678136441108
aF1.7183891925638013
aF1.4234494687142254
aI1
aF1.3241316514483927
aF1.9024160623872963
aF1.1164190622317844
aF1.4126623988982745
aF1.2240068056551143
aF1.9705131135788128
aF1.2543404547040133
aF1.3735568891867516
aF1.3171732930248945
aF1.1328060976081669
aF1.594650272267986
aF1.1611852788189037
aF1.242200785425286
aF1.8351128007023512
aI1
aI1
aF1.424565605981778
aF1.9870420074468162
aF1.0413545550367371
aF1.2762069168648311
aF1.4629354974616056
aF1.9718095930887876
aF1.7048710278919887
aF1.4512355875543521
aI2
aF1.6107286127578515
aF1.2760108359328632
aI1
aI1
aF1.4081322652215238
aF1.1336596870490363
aF1.18510879071907
aF1.336114011806346
aI1
aF1.1816347448809763
aF1.3320436374798885
aa(lp89
g11
(g15
S'I"\x9e~\xf5|\xe2?'
p90
tp91
Rp92
aI0
aaF1767.1133489608765
aa(g11
(g15
S'\xf8\x11\xdcGp\x1f\xe3?'
p93
tp94
Rp95
I0
tp96
a(g11
(g15
S'.\xac\xf4\xd4\xc2J\xe3?'
p97
tp98
Rp99
I0
tp100
asa(lp101
g24
ag42
ag60
ag78
ag96
aa(lp102
g28
ag46
ag64
ag82
ag100
aaF65494.74549603462
as.