(dp0
S'scifi'
p1
(lp2
(dp3
I0
(lp4
(lp5
(lp6
I59
aF0.5886273057961742
aF0.7454619679289793
aa(lp7
F1.0
aI0
aaF1118.7995200157166
aa(lp8
(lp9
F1.583428369050596
aI1
aI1
aF1.2893648406972713
aF1.8988418778191156
aI3
aF2.4990193554623987
aF1.906394041000549
aF1.8125613689017803
aF1.5487535475835024
aF2.302517887016641
aI1
aI3
aF2.2909146713840185
aF2.7138729354535225
aF2.9119092469398935
aF2.296177798033518
aI1
aF1.6862655456417353
aI3
aI1
aF1.8451383458130617
aI3
aI3
aI1
aI3
aI1
aF2.4873971087223294
aF1.2680642211482607
aF1.7592552489658484
aI3
aF1.966235219078773
aF1.6023897068600723
aF1.759293123701946
aF2.457118046919181
aI1
aF1.2975015686928826
aF2.886730985857191
aF1.1112934579711384
aF2.6724180880396022
aF2.5857664725136784
aI3
aF1.0205044784494217
aI1
aF2.5053867270157717
aF2.0643326750941875
aF2.7564595160424146
aI1
aF1.9441871977736445
aF1.3631769855632565
aF2.678832660837696
aF1.4905595378207694
aF1.067728966592731
aF1.704924623321964
aF1.252892317776103
aI1
aF2.363489006843703
aI1
aF1.7405459063975484
aa(lp10
cnumpy.core.multiarray
scalar
p11
(cnumpy
dtype
p12
(S'f8'
p13
I0
I1
tp14
Rp15
(I3
S'<'
p16
NNNI-1
I-1
I0
tp17
bS'HoL\x10\xda\x88\xe7?'
p18
tp19
Rp20
aI0
aaF71.57172703742981
aa(g11
(g15
S'\x1f\xf6\xfc\xc3\x9e\x7f\xe8?'
p21
tp22
Rp23
I0
tp24
a(g11
(g15
S'\xbf\x80\xfe\x02\xfa\x0b\xe8?'
p25
tp26
Rp27
I0
tp28
asI1
(lp29
(lp30
(lp31
I93
aF0.9129468595977887
aF0.7736412907458524
aa(lp32
F1.0
aI0
aaF1283.7733900547028
aa(lp33
(lp34
F2.2456652986242105
aF2.53096745728394
aF1.686983740179205
aF2.485219284528715
aF1.470689366300932
aF2.73753618284782
aF2.817287637336741
aF1.315124477311233
aF2.0580943245182146
aF1.855314689521863
aF1.382017604746691
aF2.3813787885558124
aF2.7769127344525373
aF1.904159153367334
aF2.9629374374753166
aF2.9352307825881967
aF1.5728431647655237
aF1.309305643144872
aF1.0598190839520865
aF1.4293186556735984
aF1.804029173156452
aF1.6908344362384282
aF2.915582303273454
aF2.7488672022645493
aF1.0420092159525052
aF1.3242768397388216
aF2.165100303391382
aF1.999087727437001
aF2.0424511491426194
aF1.3149399358488907
aF2.2155867436817878
aF2.5435876299463125
aF1.4859931148732937
aF1.0972506741960193
aF1.8216509223752655
aF2.484185429663793
aF2.651909139947897
aF1.2486982022243387
aF1.9093940364895505
aF1.6944657347482268
aF1.3487048908123715
aF1.6246756241931004
aF1.6566395598241546
aF1.4798468239109972
aF1.11100305979864
aF2.025086984521131
aF1.0395830091130163
aF2.2076788911342464
aF2.9249574668958354
aF2.031926066188105
aF1.613817207421215
aF2.1288585047653736
aF1.6250346333395524
aF2.154373760296243
aF1.2955126027084265
aF1.3395824382665875
aF1.089862442626455
aF2.319669479739325
aF1.9681991980953835
aF2.651926895826554
aF2.3667159537416915
aF2.2016656714429175
aF1.352263800075637
aF1.9691070835617506
aF1.0722923610702653
aF1.0930400063106516
aF1.6392595042110265
aF2.533181816031643
aF1.8163852015395014
aF2.8603565117810685
aF1.6828860427768948
aF2.047613056400328
aF1.1349899421389207
aF2.8117252976691276
aF2.986027300104371
aF2.1213948869217107
aF1.3622163653947528
aF2.3770477933608563
aF1.4341451849743485
aF1.4046864233599101
aF1.5197908056509986
aF2.5443272876882794
aF1.8218587640804937
aF1.1664165117615524
aF1.446968525222066
aF2.193985330650438
aF2.582653477696544
aF2.844327045029744
aF1.9759496001570154
aF1.5382420704863673
aF1.5114795939909866
aF1.155787501823586
aF1.0337823879015735
aa(lp35
g11
(g15
S'\xd7u]\xd7u]\xe7?'
p36
tp37
Rp38
aI0
aaF206.6496160030365
aa(g11
(g15
S'\t\xcb=\x8d\xb0\xdc\xe3?'
p39
tp40
Rp41
I0
tp42
a(g11
(g15
S'\xa8 ~ND\x18\xe6?'
p43
tp44
Rp45
I0
tp46
asI2
(lp47
(lp48
(lp49
I53
aF0.42312484526655936
aF0.40279251292510126
aa(lp50
F1.0
aI0
aaF1161.3503558635712
aa(lp51
(lp52
F2.237628896199564
aF2.5189593654115803
aF2.2304179806449254
aI3
aF2.05577567065593
aF1.3983377829212644
aF1.5002504918994102
aF2.430649932093984
aF2.3637635709706464
aF1.9035823993815102
aF2.7971012577101337
aF2.9568470623006267
aI1
aF2.0822498310365094
aI1
aF1.7141693953649577
aF1.483097080744042
aF2.2713572441627345
aF2.3939026361649907
aF2.146959253276661
aF1.4043005059959983
aI3
aF2.16864252934102
aF1.3670892008774
aF2.5450107768673056
aF2.816944590128521
aF1.7072553258908387
aF2.912209625506111
aF2.4672126196578192
aF1.816621198110015
aI1
aF2.5765885954891523
aF2.054958834319069
aF1.0571075485444423
aI1
aF2.1806826438319318
aF1.3094074656344517
aF1.9992495438503717
aF1.281522235837132
aF2.0962754145343663
aF1.2544691740325153
aF2.079581023543799
aF2.031017983972563
aF1.9420858713876488
aF2.5000688306823267
aF1.7573625017681525
aF1.7032656441923897
aF2.47776673528526
aF1.7951404861370461
aF1.5261883596816501
aF2.362462860048932
aF1.3213966902622407
aF2.0906590769480182
aa(lp53
g11
(g15
S'\xac\xaa\xaa\xaa\xaa\xaa\xea?'
p54
tp55
Rp56
aI0
aaF50.73494601249695
aa(g11
(g15
S'\xa0\xfc\x9d2\xbe\x08\xeb?'
p57
tp58
Rp59
I0
tp60
a(g11
(g15
S'\x98\xa4fJA\xdb\xea?'
p61
tp62
Rp63
I0
tp64
asI3
(lp65
(lp66
(lp67
I96
aF0.8951593628511221
aF0.4411795037180307
aa(lp68
F1.0
aI0
aaF1289.7799389362335
aa(lp69
(lp70
F2.9713642087158507
aF2.0232104338145565
aF2.000844279631239
aF2.5950816230321863
aF2.47686335054743
aF1.967582162762789
aF2.4336481693622813
aF2.5274292903954403
aF1.0927222755528585
aF1.4538983308820006
aF2.2663631750216133
aF2.3791156233887567
aF1.899154995083698
aF2.4466998639460344
aF2.4727306464807457
aF2.370367651936353
aF2.9748663215020654
aF1.8109152773905342
aF1.0890481093835287
aF1.0100793832516435
aF1.7303176633507087
aF1.0333831938767486
aF1.6748801503655917
aF2.965149721099251
aF1.6889632650971893
aF1.6674990718677496
aF2.670120329096136
aF2.400100831749629
aF1.8652137923702532
aF1.0543480109362013
aF2.643085368560559
aF1.9711361518339823
aF2.237326292069991
aF2.0829553932837177
aF1.2707581501829521
aF1.271649533103242
aF2.1826327655388633
aF1.6909271416914946
aF2.902846838428011
aF2.5160752595895644
aF2.842058099429299
aF2.6284460553446958
aF2.989769161520105
aF1.0339506018674325
aF2.4058937746654365
aF2.8413354911082696
aF1.2915354060289275
aF1.6836743202594169
aF2.5289129071954264
aF2.799308982251027
aF1.3234795341731909
aF1.2782729407283366
aF1.9895058341097944
aF2.5526984936303982
aF2.998351097498806
aF2.285264964918471
aF1.043214811567231
aF2.681582352850149
aF2.469271969577155
aF2.9062683498167394
aF2.923534931793654
aF1.1074008640289572
aF2.4977117121673817
aF1.5121674983918851
aF1.9206814038433588
aF2.3017418557452647
aF2.315158380196257
aF2.4155307269515784
aF2.956912488396627
aF2.2320117350978403
aF2.415002023934592
aF2.330974274049103
aF1.1778373555109867
aF2.509888085527082
aF2.1400943709876716
aF2.8644955612001657
aF2.7468476557317203
aF2.1666537188076314
aF1.945563377093748
aF1.7289411409948292
aF1.3446418370963937
aF2.838280059255913
aF2.430377811045246
aF2.9190121812676093
aF1.0871692496800336
aF2.6513728452885075
aF2.035438146760406
aF1.596663597569719
aF1.2225424709677815
aF2.211530994244918
aF1.5187251379938818
aF1.3839244360542
aF2.5974027291308177
aF1.7316119124160039
aF1.2905543176614547
aF2.3164143313329353
aa(lp71
g11
(g15
S'U\xae)\x1c\x0ci\xe7?'
p72
tp73
Rp74
aI0
aaF190.71068716049194
aa(g11
(g15
S'i|d\x02\xbdS\xe7?'
p75
tp76
Rp77
I0
tp78
a(g11
(g15
S'\x1at\xf8\xf4*f\xe8?'
p79
tp80
Rp81
I0
tp82
asI4
(lp83
(lp84
(lp85
I80
aF0.20698426819940502
aF0.48713112989560703
aa(lp86
F1.0
aI0
aaF1223.4902839660645
aa(lp87
(lp88
F1.802661836937848
aF2.0895506016736567
aF1.6872801110635713
aF1.427294232063885
aF1.2295877375117699
aF2.858692496197457
aF1.7694518957296013
aF2.3112753002683357
aF2.257455296271482
aF2.3155283991597777
aF1.4035148729078648
aF1.5640532121134818
aF1.2517000592082523
aF2.5664500808314212
aF2.6917196661375344
aF2.4857173031864193
aF1.9594892320201918
aF2.282195184659643
aF2.0590581379996467
aF1.656260453404749
aF1.8122519301006206
aF1.0912860348763918
aF1.9643344748247884
aF1.1727899268636686
aF1.1543927824982578
aF1.5723805699981865
aF1.418877562662272
aF1.325453719748075
aF1.7269144241261063
aF2.10344954337024
aF1.139608308298221
aF1.063717789933537
aF1.2662382188546533
aF1.5689806887511308
aF2.1507963372276824
aF2.6934432267815684
aF2.342065986216188
aF2.1427993653434227
aF2.5212286560683053
aF1.513775502390864
aF1.9334927016027268
aF1.3017457525200895
aF1.4984640267029248
aF1.091159585099683
aF1.3779818497222205
aF1.523408780581116
aF1.106421321931318
aF1.4053151261333923
aF1.3858238636616473
aF1.1842252835196914
aF2.7460367504866676
aF1.259469254172832
aF1.93012771452891
aF2.584479873202123
aF2.0013484182532895
aF1.4084173027377669
aF2.7824277610927703
aF1.3829363316520045
aF1.8145281219353222
aF1.788349344673518
aF1.9722223071981198
aF2.94052226223383
aF2.13052595325619
aF1.8881555268259784
aF1.3061211277798261
aF2.8934109981321043
aF2.314376653150425
aF2.080448740245525
aF2.128808900858771
aF2.0998623847076447
aF2.8671319715463195
aF1.141743823510758
aF2.935041041199022
aF2.855760708918483
aF1.9898729077431014
aF2.488289949779243
aF2.4289075630465424
aF2.3313885821628326
aF2.654597993888217
aF2.1354039472887596
aa(lp89
g11
(g15
S'\x05\x90\x98\x94\x9f\xe3\xea?'
p90
tp91
Rp92
aI0
aaF64.8196051120758
aa(g11
(g15
S'\x90\x02ER\x8a\x8e\xea?'
p93
tp94
Rp95
I0
tp96
a(g11
(g15
S'\xd8$\x9cL,\x97\xea?'
p97
tp98
Rp99
I0
tp100
asa(lp101
g24
ag42
ag60
ag78
ag96
aa(lp102
g28
ag46
ag64
ag82
ag100
aaF6662.0735039711
as.