(dp0
S'cs'
p1
(lp2
(dp3
I0
(lp4
(lp5
(lp6
F73.19999999999999
aF0.9924771825610434
aF0.40805415704633546
aa(lp7
F0.75
aI0
aaF1215.6268389225006
aa(lp8
(lp9
F2.488429805462501
aF1.3192349695036325
aF2.3490383579590457
aF2.280336046751606
aF1.5497454326708413
aF1.1984131278864876
aF2.2327934773028275
aF2.3975099609601305
aF1.795607771717808
aF1.4327806284989997
aF2.831148292948766
aF1.8307226687828329
aF1.8413086425340432
aF2.2583559082893254
aF2.0960255958190834
aF2.2282164792656314
aF2.299576646637334
aF1.4904086793477338
aF1.2140309239297005
aF1.012978204630211
aF1.1854962034901584
aF2.621135883316505
aF1.157203627224736
aF1.6338198979624912
aF1.6508148192694947
aF2.865082153061102
aF2.6503207581458197
aF2.5062573285052228
aF2.390659038122182
aF2.7695952338013603
aF1.8700134190503233
aF2.7243289029691207
aF2.1922655621228477
aF1.4044732088788916
aF2.346160722190124
aF1.4369363134291993
aF2.856057713592799
aF1.3925438981710836
aF2.5146910838773064
aF2.1094112136853282
aF2.7556218104803456
aF1.494388058781469
aF1.183933001528418
aF1.6530876611759397
aF1.3732698855524803
aF2.3932351461022816
aF2.1213193664813046
aF1.6194319421000463
aF2.477770946245464
aF1.9244156190013195
aF1.1644369998579198
aF1.604160233487148
aF1.3068821650182552
aF2.1710638707661056
aF1.1061544454514243
aF1.4698035518365264
aF1.1901407790475638
aF1.4278596647311748
aF2.6150063670694452
aF1.3982827073759436
aF1.172818655361362
aF1.4903606052457954
aF2.2061604026588855
aF2.864957849615542
aF1.384781435385188
aF2.5183819730404804
aF2.2838902213714487
aF2.6867151270992635
aF2.0621192107584467
aF1.2909676165262178
aF2.934872197982437
aF2.164079202285729
aF1.516405264016646
aa(lp10
cnumpy.core.multiarray
scalar
p11
(cnumpy
dtype
p12
(S'f8'
p13
I0
I1
tp14
Rp15
(I3
S'<'
p16
NNNI-1
I-1
I0
tp17
bS'*.\x19\x82u\xb4\xe1?'
p18
tp19
Rp20
aI0
aaF122.14542508125305
aa(g11
(g15
S'\xa7\x12S\x89\xa9\xc4\xd4?'
p21
tp22
Rp23
I0
tp24
a(g11
(g15
S'u\x05\x1e%\xccb\xdf?'
p25
tp26
Rp27
I0
tp28
asI1
(lp29
(lp30
(lp31
F66.1
aF0.8462898175783683
aF0.5490946525833552
aa(lp32
F0.75
aI0
aaF1225.930302143097
aa(lp33
(lp34
F2.3090615908397245
aI1
aF1.0478842052294328
aI1
aF1.2134088772595786
aI3
aF2.10294440359566
aI1
aI3
aI1
aF1.7659694781659456
aF1.4829938868665042
aF1.1318948484360751
aF2.4465857064749814
aI3
aI3
aF2.9126662805274868
aF1.924461101840586
aF2.85427109582907
aF1.7215483326575076
aI3
aI1
aF1.327238688091428
aF1.178637633267361
aF2.9353940810262173
aF1.96088521540918
aF1.650886320924846
aI1
aF2.894270002532609
aF2.2403936453259563
aF1.7641310893832576
aF1.5759834070277154
aF2.7778864702891575
aI1
aI3
aI3
aF2.9599231571288813
aF2.2494696117482813
aI3
aF2.4989643014847576
aF1.581690047263407
aF2.1532791179029873
aF1.8324532328025342
aF1.396460298460435
aF2.2111524084811096
aI1
aF2.1641421763485233
aI3
aI1
aF2.3775488091845656
aF1.6560655038767704
aF1.5114426383221409
aI1
aI3
aF2.139156535416273
aF2.7721121519090293
aF1.604249690108822
aF2.9269993907651854
aI3
aF2.250723389798036
aF1.7980136858712932
aF1.0338412177400544
aF2.4765589931899643
aF2.6564932424615693
aF1.2681690673233796
aF2.88067376735622
aa(lp35
g11
(g15
S'C\x08!\x84\x10B\xe0?'
p36
tp37
Rp38
aI0
aaF120.29437899589539
aa(g11
(g15
S'\x1b\x08\xcd\x1b\x08\xcd\xdb?'
p39
tp40
Rp41
I0
tp42
a(g11
(g15
S'h\x03PX\x9bB\xdd?'
p43
tp44
Rp45
I0
tp46
asI2
(lp47
(lp48
(lp49
F66.2
aI1
aF0.5187983753258718
aa(lp50
F0.75
aI0
aaF1169.803503036499
aa(lp51
(lp52
I1
aF2.754527583436903
aF2.76488395953929
aF1.48271951982409
aI3
aF2.269671936276014
aI3
aF1.1653251758077325
aF1.1823291160351954
aF1.5670221278301089
aI1
aF2.0581423276620576
aF2.485820102141235
aI1
aF2.527138860602701
aF2.2028311461686023
aF1.6397333825402824
aI1
aF2.5407479340849966
aF2.188655572001988
aF1.6381260316566686
aF1.4409549377538813
aI1
aF2.750466244532513
aF1.3435124352228787
aF1.4554139479748551
aF1.1379064386866824
aF2.7432737498606343
aF2.0808193358604816
aF1.4894245743199082
aF2.790914031058352
aF1.8549518302588823
aF2.1934204524077963
aF1.748142577632061
aF2.941118303730523
aI1
aF2.5795791892080975
aF1.1168750344402347
aF2.2735009781240114
aF1.8214777496678571
aF2.275872984318576
aF2.4970345625426127
aF1.9969879647485944
aF2.352982170351354
aF1.992822977511296
aF1.9961861079920427
aF2.2828614328684482
aI3
aI1
aF1.6343325624550507
aF1.5470105995885537
aI1
aF1.5705772594288951
aF1.2236639482203864
aF1.347897120231182
aF2.039768027643806
aF2.2412796919185585
aF1.8217176466581853
aF2.832436144212603
aF1.0417451771407424
aI1
aF2.458396571751145
aF2.513494958236048
aF1.728569443875997
aF1.4227029766074177
aI3
aa(lp53
g11
(g15
S'8\x92\xfd\xaa`7\xe2?'
p54
tp55
Rp56
aI0
aaF103.67810297012329
aa(g11
(g15
S'#cZ\xc3\xd7\xe2\xdd?'
p57
tp58
Rp59
I0
tp60
a(g11
(g15
S'xxxxxx\xe0?'
p61
tp62
Rp63
I0
tp64
asI3
(lp65
(lp66
(lp67
I78
aF0.5382009223828593
aF0.9920810980860357
aa(lp68
F0.75
aI0
aaF1270.2125589847565
aa(lp69
(lp70
F2.148742934142595
aF2.820976485805736
aF1.581099450899995
aF1.0018176025764964
aF1.2217265077673387
aF1.0667152794835792
aF2.4955786005819434
aF1.265280248349643
aF1.6276674132251625
aF1.63840585483881
aF1.9865020955750086
aF1.1448576521332725
aF1.5325975531342384
aF1.9684051659447765
aF2.9611512314902737
aF2.87053165634741
aF2.964284116386829
aF1.038620645018208
aF2.787845582033353
aF2.3180688252845787
aF1.4970017417102333
aF1.5199681086236623
aF1.9780938692270824
aF2.630949269975188
aF2.828915707954048
aF1.9140949035512878
aF2.5310750581436636
aF2.411412276313513
aF1.711889126852189
aF1.9049324225518116
aF1.1274838231276167
aF1.9913813063167787
aF2.6540984165815296
aF1.9777240324735321
aF2.339589911742629
aF2.1811302189065707
aF2.676448230587983
aF1.3765026189310923
aF1.0234504340597308
aF1.0365458294523706
aF2.893742618910575
aF1.524069090456129
aF1.366574524029999
aF2.14275897470399
aF1.6578150136585044
aF2.8775006709386592
aF1.3598901259672547
aF2.6430990181766427
aF2.0771495941155838
aF1.9243417292462364
aF2.2116515182950973
aF1.3218333032972942
aF2.9503079627431976
aF2.783246936346578
aF2.057201565123693
aF1.0381950676418268
aF1.117700320417436
aF1.9820596454720905
aF1.1199901137637442
aF2.4093259463151186
aF2.748483040407172
aF2.7169182415887225
aF2.5255541386540576
aF2.9710203741461605
aF1.087139904394862
aF1.3092264245975422
aF1.0678591003389877
aF1.053003436751003
aF1.0149944494982335
aF2.012722979024089
aF1.940735877120182
aF1.5978767074818865
aF1.653146704037394
aF1.4555604790466312
aF1.6317463881340246
aF2.987977343569953
aF2.8608311103120903
aF2.440993324257945
aa(lp71
g11
(g15
S'3\xaaW\xf4\xe41\xe1?'
p72
tp73
Rp74
aI0
aaF110.39785599708557
aa(g11
(g15
S'A\x88\x8e\x87\x1d\x05\xe2?'
p75
tp76
Rp77
I0
tp78
a(g11
(g15
S'M]n\x7f\x90\xa1\xe2?'
p79
tp80
Rp81
I0
tp82
asI4
(lp83
(lp84
(lp85
I95
aF0.36344674902292273
aF0.9137967952322533
aa(lp86
F0.75
aI0
aaF1291.9414460659027
aa(lp87
(lp88
F1.7376821802923461
aF1.0254805198561543
aF2.2073769763663944
aF1.3712636450883993
aF1.9910719539122312
aF2.088722188626649
aF1.5786718003332114
aF1.9151294908710845
aF2.302562418098388
aF1.637410676554227
aF1.0107296147647347
aF2.716539852062075
aF2.6049849903283917
aF2.454935687320288
aF1.006136155734727
aF2.9322199876031934
aF1.7206077168341638
aF2.570694564313281
aF1.0935470495420805
aF2.185062924843187
aF1.5952745204421395
aF1.8777157167179723
aF2.428278946421533
aF2.5325674352472136
aF2.895437549319679
aF1.81835954860372
aF2.5756990328522305
aF2.461038181753773
aF1.363983651643087
aF1.7804075278104112
aF1.1337369169598452
aF2.794442689385211
aF2.8595709052947966
aF1.7181308661359787
aF1.153001424079251
aF1.4302329532338054
aF1.523899342155903
aF2.0726188430425125
aF2.8165346560111995
aF1.3039013823479635
aF2.9213586550686017
aF2.1024546135851314
aF2.8425780521133373
aF2.5233627809305883
aF1.27516972365508
aF2.7013622729815214
aF2.0784051784164594
aF2.1298216599272908
aF2.767729366875102
aF1.9404355652986076
aF2.220350623199021
aF1.822276349719508
aF2.7129661487521695
aF1.0741671199100835
aF1.8488505107809527
aF2.229112622871905
aF1.232217403047335
aF2.752247557538498
aF2.5710232503686092
aF2.15708560236368
aF1.7409730689111607
aF2.178330245592333
aF2.0569503366603104
aF1.991975992844112
aF2.4935882962758145
aF1.0896212046776235
aF2.449532893112769
aF2.7242127680529213
aF2.7688581824068446
aF1.4101772640749597
aF1.0716907528602875
aF2.0875039917810425
aF2.020960552887469
aF1.6583934829134312
aF1.1077213634623255
aF2.2052575695359913
aF1.0207686883921103
aF2.384907015718854
aF1.3862496645770674
aF2.95964907510347
aF2.671479845676118
aF2.6516884206177993
aF1.6419914813892764
aF1.6196573092531408
aF2.9072923466396112
aF1.1914211885235368
aF1.929752431008615
aF2.4097471130765578
aF2.382308027782541
aF1.8414159321006658
aF2.9168823967612383
aF2.1309306981229517
aF2.9558376465522525
aF1.710985736717221
aF1.6593587387524542
aa(lp89
g11
(g15
S'=\xdf\x01\xd4\t\x99\xe3?'
p90
tp91
Rp92
aI0
aaF129.86228895187378
aa(g11
(g15
S'\x0e\x1f\xe5J\xdd\xf0\xe1?'
p93
tp94
Rp95
I0
tp96
a(g11
(g15
S'\x81\x9d\x0bAl\x91\xe1?'
p97
tp98
Rp99
I0
tp100
asa(lp101
g24
ag42
ag60
ag78
ag96
aa(lp102
g28
ag46
ag64
ag82
ag100
aaF6760.156695842743
as.