(dp0
S'SE0'
p1
(lp2
(dp3
I0
(lp4
(lp5
(lp6
I55
aF0.7602710954605432
aF0.7648532511684383
aa(lp7
F1.0
aI0
aaF509.898628950119
aa(lp8
(lp9
F1.158597278078438
aF2.336868995596947
aF2.487292087410676
aF2.3225387202155994
aF1.7520645751682375
aF1.0985360437206688
aF1.179521290438261
aF1.3305742810299934
aF2.3624669950561197
aF2.3102795296339105
aF2.454895352976634
aF2.203316188094095
aF1.1468705913579633
aF1.1133477641366343
aF1.8714701196980037
aF1.469840293708956
aF1.0192409066134314
aF1.957913361203753
aF1.1482938514356862
aF2.8763043565751323
aF2.5916800350125313
aF1.9441227072513059
aF2.8136369591632846
aF2.029632903569061
aF2.5081556969090126
aF2.085296203806058
aF1.7260107435798508
aF1.4374575806859389
aF2.9625047476131625
aF1.7769052169318018
aF1.623137937392585
aF2.7463250177240104
aF2.731517659118946
aF1.5588518916514482
aF2.1511710397041353
aF1.5485344717767957
aF1.399646662114194
aF1.3979122116102132
aF1.4949117520562984
aF1.9268125543468033
aF1.2141333298701762
aF1.8877819605149442
aF2.542948909661594
aF2.087368872984073
aF1.5700609758515272
aF1.563902617816732
aF1.0586953758400695
aF2.4774897496533335
aF1.1808048664252802
aF1.5038252873671913
aF2.5635416779575517
aF1.5008047372738702
aF2.6358525344472774
aF2.188095217265153
aF2.3638961135847225
aa(lp10
cnumpy.core.multiarray
scalar
p11
(cnumpy
dtype
p12
(S'f8'
p13
I0
I1
tp14
Rp15
(I3
S'<'
p16
NNNI-1
I-1
I0
tp17
bS'\xe7\xbc#\x91g\xce\xeb?'
p18
tp19
Rp20
aI0
aaF12.420049905776978
aa(g11
(g15
S'\x08\x03\xce\xb8\x16\t\xea?'
p21
tp22
Rp23
I0
tp24
a(g11
(g15
S'\x14S\xeb\xde\x97\x8c\xea?'
p25
tp26
Rp27
I0
tp28
asI1
(lp29
(lp30
(lp31
F88.0
aF0.1
aF0.9238070672765982
aa(lp32
F1.0
aI0
aaF619.7229218482971
aa(lp33
(lp34
F2.831606999573405
aF2.5536984886715453
aF1.9544569463609764
aF2.8780037639148084
aF2.56288141746045
aF2.534888833650383
aF1.7822708536886245
aF2.645295039656941
aF2.387293545559494
aF1.336269094368448
aF1.0870807496326906
aF1.7147765120674172
aF2.236752039354541
aF1.801114926905945
aF2.3726506547494997
aF1.4677018912076452
aF1.8193953882786336
aF1.0960728429761422
aF2.639529282575364
aF2.2601284203003797
aF1.430726652280755
aF2.249849548927949
aF2.8291863063670855
aF2.985712998904252
aF1.7903932460919842
aF2.2504708407888163
aF1.559759233031146
aF2.4883837067280803
aF1.484641343446659
aF1.1358240422005512
aF1.9057725431477393
aF1.5368838684833381
aF2.0129350969284685
aF2.628503085104338
aF2.152554865447955
aF2.752923380920916
aF2.6279355849315325
aF2.6248779782510345
aF2.0223323471964667
aF1.851604642452688
aF1.3511723382101786
aF2.3976291576231326
aF1.6825505290357987
aF2.3990767553334593
aF1.253553088580809
aF2.9710363568092033
aF2.292474719973334
aF2.7440148292716655
aF2.829274611645018
aF2.083328492713597
aF1.7319722472273218
aF1.048202731248259
aF2.772871959924822
aF1.2993092793994045
aF1.998131703685862
aF2.1629230178554764
aF1.5305262650910398
aF2.210880433679498
aF2.2767575028256175
aF1.2245802750407169
aF1.7937570962380425
aF2.2839169667232806
aF1.4865189567093833
aF1.683952617846428
aF2.550889744486185
aF2.206218570383367
aF1.78684036657412
aF2.5925861369781154
aF1.5824599645407578
aF2.906451056613826
aF1.6672139736986717
aF2.8051293463765328
aF2.224347128919093
aF2.3667022843477206
aF1.8555713564272127
aF2.0360819506836294
aF1.355826830803076
aF1.7749745814618985
aF1.5626678494488255
aF2.8875337526608784
aF2.07495015461383
aF2.791579872673779
aF2.8444680242495886
aF2.041752863435941
aF2.913515583490973
aF2.4895592572870804
aF2.8836909778639592
aF1.5128380607037837
aa(lp35
g11
(g15
S'P\xc6o\x97z2\xee?'
p36
tp37
Rp38
aI0
aaF11.213444948196411
aa(g11
(g15
S'\xe6\xe4=\x15\xf2\x11\xed?'
p39
tp40
Rp41
I0
tp42
a(g11
(g15
S'\xa9\x90\x8f\xe8\xbf\x9c\xec?'
p43
tp44
Rp45
I0
tp46
asI2
(lp47
(lp48
(lp49
I59
aF0.9436741185025842
aF0.9853382031885467
aa(lp50
F1.0
aI0
aaF476.8414340019226
aa(lp51
(lp52
F1.5200719562119485
aF2.6622476760676252
aF2.1579346083294757
aI1
aF1.9898306418818867
aF1.3162554615493873
aF2.34848383909163
aI1
aI1
aI3
aF2.449244703334984
aF2.927401177580802
aI3
aF1.6112021923488402
aF2.9477347996117245
aI3
aF1.7527235249770186
aF2.81806282592594
aF2.80837242069124
aF2.5548131094107442
aF2.7788000253494523
aI3
aI3
aF2.5175826422134966
aF2.2975136288579696
aF2.0573031936678854
aF1.7137102353097098
aF1.9735036086529736
aF1.7845100051590905
aF1.4730160002412
aF1.8533076319329522
aI1
aI1
aF2.1994052822453347
aI1
aI1
aF2.4124741937014083
aI3
aF1.7828915260342557
aI1
aF2.8218252257842815
aI1
aI1
aF1.2547435859245806
aF1.6177204751477952
aI1
aF1.7489762519415113
aF2.119114571802489
aF1.4804074986309343
aF2.690944707709135
aF2.729326884269958
aF1.8441194334364397
aF2.439163305595934
aF2.7268515271517715
aF2.1142447062969305
aI1
aF2.1453492937301215
aF1.169395866503653
aF1.6889559468522035
aa(lp53
g11
(g15
S'rO#,\xf74\xea?'
p54
tp55
Rp56
aI0
aaF12.982362985610962
aa(g11
(g15
S'F]QW\xd4\x15\xe5?'
p57
tp58
Rp59
I0
tp60
a(g11
(g15
S'\xe5\xc8\xcf\x15\xb3\x1c\xe9?'
p61
tp62
Rp63
I0
tp64
asI3
(lp65
(lp66
(lp67
F96.3
aF0.45061469798266696
aF0.6894987663555829
aa(lp68
F1.0
aI0
aaF575.9754729270935
aa(lp69
(lp70
F1.68599631026431
aF1.0740505192632548
aF2.0385970334745065
aF1.7321666372490225
aF1.7607248725097038
aF2.9205411085175905
aF2.4516813816198892
aF1.563087771910001
aF1.059869889884313
aF2.40848299816719
aF1.1108531090260412
aF1.250760823947735
aF2.5903766695724837
aF2.2253624380798405
aF2.088325174739677
aF1.0856031288658372
aF2.821008842914834
aF1.7438935272806524
aF2.7030717558067954
aF2.6172279814248043
aF2.03234371825385
aF2.5064969218859154
aF2.330660816561757
aF2.387204581645424
aF1.3058220691189109
aF2.7059549113013945
aF2.3313993242806896
aF1.8579135066559653
aF1.765196844128418
aF2.6713553550284566
aF2.9751221331881936
aF2.6738426362196837
aF1.1004516079288065
aF1.034123764031226
aF2.7567603771362377
aF2.4644175364591154
aF2.0085206125636623
aF1.2668867569513589
aF2.8137400173379596
aF2.6169219289379013
aF2.949205689069478
aF2.6712779660502015
aF1.907754925343415
aF2.2073596306297
aF1.133716407836031
aF1.3773624497600874
aF1.0046626311445563
aF1.388655919508877
aF1.5688665688113135
aF1.2455977546484482
aF2.6634228243195537
aF2.7171866324054488
aF2.3352150567498224
aF2.693900997643188
aF1.6670686515475677
aF2.2237021867784073
aF1.6645972071523207
aF1.3111691576849336
aF2.6962000453142503
aF2.5566461824557236
aF2.7888390044210145
aF1.3432485178841487
aF2.9818425143185983
aF2.9079688393924776
aF1.1054534520899493
aF1.8715360325002566
aF2.2675125924762507
aF1.0176686193154658
aF1.7561324373020837
aF1.055701685572028
aF2.5848693068907265
aF1.0125474894883744
aF2.287289645585111
aF2.17775527006333
aF2.047504903578115
aF1.7246363492100028
aF1.0896168799928172
aF1.0290908292070098
aF2.527829440434892
aF1.8670894908632603
aF2.315385756151396
aF2.376871759457911
aF2.54156499456717
aF2.450289534423019
aF2.1174192814283526
aF1.8248898400430762
aF2.950847880857003
aF2.3003725021089805
aF2.996920970994702
aF2.5462297727520977
aF1.621855591944237
aF1.2176472489724137
aF2.7090034260085343
aF1.302931034776651
aF2.378036025844307
aF2.7488347995242686
aa(lp71
g11
(g15
S'R\xbc@&\xc5\x0b\xec?'
p72
tp73
Rp74
aI0
aaF20.620824813842773
aa(g11
(g15
S'\x82a\x07\x7f\x03\x8d\xe7?'
p75
tp76
Rp77
I0
tp78
a(g11
(g15
S'\xf82\xe4\xf72\xe4\xe7?'
p79
tp80
Rp81
I0
tp82
asI4
(lp83
(lp84
(lp85
I100
aF0.83462499745357
aI1
aa(lp86
F1.0
aI0
aaF570.134566783905
aa(lp87
(lp88
F2.2819664415203547
aF1.6820556902495762
aF2.132993996374669
aF1.9372091207370372
aF1.2646267999597607
aF2.7822538586135837
aF1.8087256933586189
aF1.0793828002121286
aF2.640376397829065
aF2.5092948766223704
aF1.9497566867670384
aF1.9295916956326484
aF1.0567600039257596
aF1.5589370694581985
aF1.952833181266693
aF1.7467634183616287
aF2.7891833958053196
aF2.1153223844686107
aF2.8215373605726457
aF1.413805586075455
aF1.9560541914309764
aF1.9849597519698057
aF2.273627708722442
aF2.5146235485234483
aF1.0004832329083024
aF1.5834425976432773
aF2.8877148178415997
aF2.3766068062854817
aF1.2524418996723714
aF1.885650662799547
aF2.251769018898504
aF1.9233653089132716
aF2.5811769572032928
aF2.9198202588305433
aF2.67409932102674
aF1.4760706317649206
aF2.026359356948051
aF2.793325797024784
aF1.8375329421788926
aF1.913971440307061
aF1.3704127696966848
aF2.7521634678144324
aF1.2129174458985756
aF1.8735007791060596
aF2.155881771836599
aF2.777932388510494
aF2.9455040683601883
aF1.1846810563852883
aF1.64821989312076
aF1.8137800308231815
aF1.3360474257833526
aF1.2797793409264513
aF2.1502044665022995
aF1.4342550541958783
aF1.5541979518659867
aF1.8937076945959002
aF1.5976114062746778
aF1.307073763906621
aF1.0719405914322107
aF2.220660084733585
aF1.0012412386758507
aF1.6009614634847937
aF1.804224238554344
aF2.7339923899949605
aF1.4817876781490023
aF1.6581622073680624
aF1.3619161280741852
aF2.0875514363080994
aF2.1672531455106983
aF2.1268659369156673
aF2.8795808674018355
aF1.8632979833913708
aF1.2178526003532555
aF1.8664239965142038
aF2.3092057124231946
aF2.086843921655662
aF2.489510486132495
aF2.203665564584238
aF2.655332827074947
aF2.5512834625823952
aF2.5320961733574663
aF1.1478579196707743
aF2.9453348732940396
aF2.6344934429446933
aF2.7887673554647163
aF1.5530979014978057
aF2.293510239634868
aF2.9252832165874167
aF1.6642817117983295
aF2.0533359070779347
aF2.0613009631048627
aF2.902186337884028
aF2.3730897559554793
aF1.477929029329109
aF2.268405799583796
aF1.9366745436187578
aF2.0581369449932927
aF1.8190247352673097
aF2.86008352071348
aF2.3345924766494868
aa(lp89
g11
(g15
S'\xea\xa0\x0e\xea\xa0\x0e\xea?'
p90
tp91
Rp92
aI0
aaF30.522965908050537
aa(g11
(g15
S'\x00\x00\x00\x00\x00\xc0\xe3?'
p93
tp94
Rp95
I0
tp96
a(g11
(g15
S'I\xfflH\xffl\xe8?'
p97
tp98
Rp99
I0
tp100
asa(lp101
g24
ag42
ag60
ag78
ag96
aa(lp102
g28
ag46
ag64
ag82
ag100
aaF2840.4725379943848
as.