(dp0
S'cs'
p1
(lp2
(dp3
I0
(lp4
(lp5
(lp6
I124
aF0.6346640016211236
aF0.7786114196224868
aa(lp7
F0.75
aI0
aaF2857.8921189308167
aa(lp8
(lp9
F1.970430794261936
aI1
aF1.2842448557459383
aF1.2240081786777055
aF1.8837690057413699
aF1.1831936012889896
aF1.0686744701790678
aI1
aF1.1520550158165386
aF1.2831115556014907
aF1.175322773513792
aF1.4762746489303378
aF1.7023901120937608
aF1.4168310588045976
aF1.7878948984901704
aI2
aI1
aF1.912371035085572
aF1.727230540175872
aF1.4624572809577487
aF1.5339240488861154
aI1
aF1.059320356995702
aF1.4248252999182371
aF1.4248635356763768
aI2
aI1
aF1.30751630826566
aI2
aF1.745531778120998
aI1
aF1.400805159463414
aF1.3415306339905402
aF1.1703007190938348
aF1.2631863716767688
aI1
aF1.645276816112962
aF1.0588617178900241
aF1.7275651015505136
aF1.4330818658718525
aF1.9414791891827994
aF1.9206121724830547
aI2
aF1.0783381672525147
aI1
aF1.8762476007135196
aF1.1171136716829329
aF1.9145684847273559
aF1.4757504993978652
aF1.1194808747723286
aF1.6389794943158318
aI2
aF1.8628128370103059
aI2
aF1.8998626482647605
aI2
aF1.6718871081230384
aF1.7558907589117752
aI1
aF1.1180526420966574
aF1.4658014722552637
aF1.7481273306612333
aF1.1761498287277665
aF1.5271425920454778
aF1.6289434286283948
aF1.8509298728197037
aF1.1776212700009523
aF1.8002051355619324
aF1.436991272512332
aF1.7939603154755108
aI2
aI1
aF1.7488973419520615
aF1.7434732514826599
aI2
aF1.9314381675502543
aF1.506322961674706
aF1.8444073827162648
aI2
aF1.668707394901795
aI2
aF1.5823452224282395
aF1.2333713355037226
aF1.6842713997582859
aI1
aI2
aF1.5599320915684285
aF1.1903753920343576
aF1.7043631916587023
aI1
aF1.2877107504330212
aI1
aF1.321771467890271
aF1.0847838680620914
aF1.2628966129340693
aI1
aF1.4004687179140887
aI1
aF1.472124972170772
aF1.3803589153129956
aF1.4215852720093247
aF1.8386295113172584
aI1
aF1.8090693866191307
aF1.6607889300714613
aF1.3424367746352734
aF1.5039987665966879
aF1.7559101291038595
aF1.6657117791400964
aF1.1957418655873158
aF1.5501417543145237
aF1.5881804068606957
aI1
aI1
aF1.55372674974569
aF1.3477073458035345
aI1
aI2
aI2
aF1.4009581511054465
aF1.018331593106288
aF1.4649120300272997
aF1.7241314042035238
aI1
aa(lp10
cnumpy.core.multiarray
scalar
p11
(cnumpy
dtype
p12
(S'f8'
p13
I0
I1
tp14
Rp15
(I3
S'<'
p16
NNNI-1
I-1
I0
tp17
bS'\xfd`\xce\xe3\xd2\xb7\xdf?'
p18
tp19
Rp20
aI0
aaF136.900319814682
aa(g11
(g15
S'\x05\xe7\xe2\xa4YY\xe0?'
p21
tp22
Rp23
I0
tp24
a(g11
(g15
S'\x02\xc5\x92\xe8X\xef\xe0?'
p25
tp26
Rp27
I0
tp28
asI1
(lp29
(lp30
(lp31
I105
aF0.8617528694763242
aF0.7603820753847752
aa(lp32
F0.75
aI0
aaF2891.729814052582
aa(lp33
(lp34
I1
aF1.14302779793581
aI2
aI2
aF1.1630629546441087
aF1.1279480460331517
aI1
aI2
aF1.6344189493957968
aF1.3151517249690687
aF1.714250082429842
aF1.5422488934119962
aF1.6520992090804325
aF1.1231751018404914
aF1.2992028467435262
aI1
aF1.4504811826183022
aF1.984449613598064
aF1.7763010766634382
aF1.5586077146559658
aF1.1646719546739264
aF1.5320572718229357
aI1
aF1.0621687837251301
aF1.502370162440175
aF1.0773809207179257
aF1.4533818796952798
aF1.325669181777113
aF1.7194465034918371
aF1.1154216640761816
aF1.140873405835197
aF1.283890496412994
aF1.6130892846307534
aF1.652462862028252
aF1.5962037156188482
aF1.938358420599148
aF1.7896214422929981
aF1.5377938943490006
aI2
aF1.4109985083807375
aF1.2322344134170533
aF1.1236883304124474
aF1.110987161229742
aF1.7924375128291894
aF1.3059441998610972
aF1.7734877364126322
aI1
aF1.3161687291813173
aF1.0353300911784384
aF1.0037790979172305
aI2
aF1.244472897389617
aF1.0668971643004497
aF1.6004904407113854
aF1.5153422999004926
aF1.1384664326194438
aF1.8150826742149175
aI2
aI2
aF1.2868010856972008
aI1
aF1.7860419270901358
aF1.1771544612797822
aF1.499503783813557
aF1.2560858795675234
aF1.361805896362786
aF1.5460400375594294
aF1.0848339148250965
aI1
aF1.3896411602103695
aI1
aF1.2963391965204527
aF1.6993431280819618
aF1.9741978253896264
aF1.8407157612793108
aF1.7985615473476555
aF1.8524929843740052
aF1.5124783657264926
aI2
aF1.3434040769291076
aF1.4192101110963276
aF1.126531298077232
aI1
aF1.5666252596886092
aF1.3363413040739438
aF1.3456726796086127
aF1.2621481282837166
aF1.3707407035469028
aF1.8626104234785785
aF1.6557169726282968
aI1
aF1.7816685934505596
aF1.1840422104503654
aF1.9883558858933494
aF1.8141043907501544
aI1
aF1.624047502046376
aF1.8652613594099126
aF1.699952316419668
aF1.4793690643392154
aF1.2275137057292629
aF1.7723147523879905
aF1.895471011983905
aI2
aI1
aa(lp35
g11
(g15
S's\xab3R1\xb7\xe2?'
p36
tp37
Rp38
aI0
aaF134.10689210891724
aa(g11
(g15
S'\xdb/\xa6\xd9\x089\xda?'
p39
tp40
Rp41
I0
tp42
a(g11
(g15
S'\xe5\xba\xe3\xc5\x96\xe0\xdb?'
p43
tp44
Rp45
I0
tp46
asI2
(lp47
(lp48
(lp49
I76
aF0.6894014766834582
aF0.08030300219546459
aa(lp50
F0.75
aI0
aaF3085.977672100067
aa(lp51
(lp52
F1.0396832230935655
aF1.2694225467462026
aF1.200091982497184
aF1.7714037425230995
aF1.4954895320717452
aF1.1584260286806813
aF1.718976492377809
aF1.5157904923356302
aF1.2088087301522172
aF1.1978000939246976
aF1.213994638906276
aF1.4703957117829247
aF1.6114566066715843
aF1.0247207891445171
aF1.7707066481041462
aF1.9994355586139538
aF1.2416617370483403
aF1.5675358346423365
aF1.957139756266066
aF1.8270544865745713
aF1.951124440115271
aF1.1117844683380445
aF1.8929866366556987
aF1.6026822853501286
aF1.0503869779470205
aF1.1933428518788278
aF1.436308166572361
aF1.329498374374734
aF1.9189255798335392
aF1.6392344750410506
aF1.7739003324295515
aF1.2222203174429755
aF1.9677502654070138
aF1.3974946074940497
aF1.1263846660255359
aF1.3457301552544851
aF1.0831331889455815
aF1.1669664081069033
aF1.8117313954964054
aF1.7160871821102859
aF1.6308158724788542
aF1.0887674679824517
aF1.0086646811347808
aF1.701788278694763
aF1.0227716583721769
aF1.894745010437703
aF1.6491372280046832
aF1.115447937670024
aF1.8779875892720814
aF1.6862249412136427
aF1.7638303149642471
aF1.5352793472778377
aF1.0794595401679206
aF1.7267841468263592
aF1.9339506989649462
aF1.3149848581159578
aF1.2119104735477357
aF1.6826224802278429
aF1.1490759456696436
aF1.9207677256540967
aF1.5379611553582544
aF1.657506350601932
aF1.479606764144624
aF1.5825682041396447
aF1.0789560257517858
aF1.3028492570540533
aF1.0991766096840268
aF1.5432570396866347
aF1.5115958285022446
aF1.8122598719392613
aF1.0033322073926905
aF1.511223359070927
aF1.610492377635706
aF1.6126027333091995
aF1.0508123050149436
aF1.56973757977555
aa(lp53
g11
(g15
S'}\xd9\xa0\xc9\x97\r\xe2?'
p54
tp55
Rp56
aI0
aaF94.22993516921997
aa(g11
(g15
S'\x07\xa2\xd2\x91=\x03\xe1?'
p57
tp58
Rp59
I0
tp60
a(g11
(g15
S'\x7f=W\xb1l|\xe3?'
p61
tp62
Rp63
I0
tp64
asI3
(lp65
(lp66
(lp67
F124.6
aF0.7591931118759259
aF0.6815317035550188
aa(lp68
F0.75
aI0
aaF2994.985782146454
aa(lp69
(lp70
I1
aF1.7312628901063705
aF1.9210989453885223
aF1.0982375215196747
aF1.4956112093580245
aF1.3538731256882206
aI1
aF1.4366341759024228
aI1
aF1.182228696196177
aI2
aI1
aF1.9666278680574294
aF1.3033772898150342
aF1.2886743137090657
aF1.4563144671237018
aI2
aI2
aF1.283063065233014
aF1.449097284458776
aF1.3764033912580862
aF1.3090362158693916
aF1.2267211827388596
aF1.7405270554968402
aF1.9689302361478134
aI1
aI2
aF1.220758719387392
aF1.8883060883792453
aF1.9356348923783147
aF1.6421272958572986
aF1.1943320201861605
aF1.3334070718844122
aF1.1189774549689235
aF1.183320786172437
aF1.059663542115974
aF1.8119799937785313
aF1.8042477208870178
aF1.4019927779241412
aI2
aF1.4294829976703705
aF1.3114393612648076
aF1.091958483047461
aF1.4404783236662992
aF1.6430306972212807
aF1.6529743976567186
aF1.4094419852168185
aF1.4037910621552814
aI1
aI1
aF1.974539058569405
aI1
aF1.30243941520036
aF1.1698677349329878
aF1.1077384417083067
aI2
aF1.2801647417062063
aF1.5493205624281496
aF1.6259750258601993
aI2
aF1.6521977747660674
aF1.8223866009208574
aF1.955925637768303
aF1.8672210042920527
aF1.2703650709328485
aI2
aF1.9443917099453654
aF1.7125027531328099
aF1.9432771549760874
aF1.421134979790339
aF1.7489823217234988
aF1.557973252339224
aI1
aF1.7191226491823373
aI2
aF1.7266606542196488
aF1.27971450990291
aI1
aF1.3721263353866924
aF1.4589718340184858
aI2
aI2
aF1.3351060224769424
aI1
aF1.60754529784366
aF1.7988877413330742
aI1
aI1
aI1
aI2
aF1.28334571071963
aF1.3788287591658392
aF1.1618066158153024
aF1.772132814481435
aF1.2335259264945957
aF1.2489147963711917
aF1.9553650844454578
aF1.7503934198617022
aF1.4621547629177265
aF1.6283484658411203
aF1.0341133496158865
aF1.4641639946514444
aI1
aI1
aF1.2086557373137403
aI1
aF1.4739516612382706
aF1.8269122256971682
aI1
aF1.4602081537959832
aF1.8993010898800322
aF1.5814822404558275
aF1.7080050490835468
aF1.1861448402375827
aF1.9533375978112246
aF1.1382745110149752
aF1.8500829483787262
aF1.242391621874203
aF1.0583649040492724
aF1.5422702777621184
aF1.277466805879292
aF1.0635217228276852
aF1.0895999988232186
aI2
aa(lp71
g11
(g15
S'\xf6\x87\xc1\xc2\x919\xe1?'
p72
tp73
Rp74
aI0
aaF160.34366416931152
aa(g11
(g15
S'\xb2\xfa\x03=RB\xde?'
p75
tp76
Rp77
I0
tp78
a(g11
(g15
S'\xd6=\xd2\xca\xe4\t\xe0?'
p79
tp80
Rp81
I0
tp82
asI4
(lp83
(lp84
(lp85
I134
aF0.3087005485880673
aF0.7270208554843267
aa(lp86
F0.75
aI0
aaF3273.767450094223
aa(lp87
(lp88
F1.1384123351758735
aF1.3128629182922644
aF1.9942898600276453
aF1.1472486714813472
aF1.7991986447246109
aF1.298681989510532
aF1.137420649091227
aF1.144786696068329
aF1.357197393015665
aF1.4479356881047165
aF1.4652937588036963
aF1.9424856926441803
aF1.9834043246831032
aF1.9852308407710533
aF1.424327808978167
aF1.872754189127177
aF1.7264314831922514
aF1.1146015396822
aF1.524062658436122
aF1.9185788548639091
aF1.403485702715971
aF1.7908073165851452
aF1.2863749351894493
aF1.734566663791997
aF1.3852620991573128
aF1.6082032917349238
aF1.136584968948347
aF1.907069162954726
aF1.558257540765225
aF1.3880605411273526
aF1.4054268200896305
aF1.238191977057674
aF1.0751680937307841
aF1.7895153182417192
aF1.0952781215733722
aF1.2902615845274954
aF1.3954605807572866
aF1.1274856145511647
aF1.8401308177550395
aF1.2945380386168033
aF1.5385443993059444
aF1.1868666116954192
aF1.5052727528399232
aF1.4392941396753134
aF1.3198303676686824
aF1.0215468797031022
aF1.0100133158546751
aF1.9351474768132175
aF1.052668781321461
aF1.8112317872074004
aF1.5204319321350677
aF1.4766789358351944
aF1.9605025390888025
aF1.2268081639184052
aF1.8015662409115543
aF1.3525888891920306
aF1.57115792950444
aF1.5229079618959394
aF1.966025459945215
aF1.000038488667144
aF1.0945484428742631
aF1.333678866418186
aF1.3418473374289253
aF1.0512494662972793
aF1.1705173228674786
aF1.370831236068268
aF1.4257650085897569
aF1.1438951140330846
aF1.2578803653802115
aF1.9394676863411808
aF1.2813287089248613
aF1.156861976659724
aF1.4040959111149265
aF1.8052251014083096
aF1.2190303777801965
aF1.2935753556969343
aF1.3786376823453805
aF1.1793860676206205
aF1.3594832631251035
aF1.7319551680932084
aF1.0471545907971898
aF1.3187602325870733
aF1.219279748605877
aF1.253455095343058
aF1.7010017474478072
aF1.9132396404880614
aF1.583487244722804
aF1.0235509503335565
aF1.6401113889282724
aF1.093287559994152
aF1.5128940213618751
aF1.0354796563509565
aF1.9754847102160005
aF1.776755169137335
aF1.6902731649818992
aF1.844865738720069
aF1.0429756172457636
aF1.0350658595930105
aF1.0902587925532226
aF1.8548236031731375
aF1.7492067641870481
aF1.9000969604039057
aF1.822887884109185
aF1.3931902031757715
aF1.8885507901304917
aF1.8383576465469842
aF1.1240580975431151
aF1.3442986618485406
aF1.9438919351661017
aF1.4894038245686727
aF1.0986396366077407
aF1.1337115688054378
aF1.9263203057777714
aF1.8405710398270403
aF1.6289237758016741
aF1.1941530662959932
aF1.176711468838336
aF1.876614351415598
aF1.4394198620508585
aF1.2711699202952642
aF1.7219981424207158
aF1.5931506511880067
aF1.2957107120855744
aF1.6887909722187475
aF1.7480392635146966
aF1.6704939461055082
aF1.1031123850835072
aF1.4669910853445616
aF1.1476708933101434
aF1.2336143949308986
aF1.9104760374425456
aF1.2776682879090995
aF1.3196904215236778
aF1.9466514695285135
aa(lp89
g11
(g15
S'C\x16\xb2\x90\x85,\xe4?'
p90
tp91
Rp92
aI0
aaF120.65351104736328
aa(g11
(g15
S'\x05.p\x81\x0b\\\xe0?'
p93
tp94
Rp95
I0
tp96
a(g11
(g15
S'\x06\xcd\xa1bAs\xe0?'
p97
tp98
Rp99
I0
tp100
asa(lp101
g24
ag42
ag60
ag78
ag96
aa(lp102
g28
ag46
ag64
ag82
ag100
aaF15751.161473989487
as.