(dp0
S'diy'
p1
(lp2
(dp3
I0
(lp4
(lp5
(lp6
I93
aF0.5874194175059916
aF0.807030548389308
aa(lp7
F1.0
aI0
aaF1054.6769790649414
aa(lp8
(lp9
F2.8893017897247555
aF1.6077154492981802
aF2.8933456702374674
aF2.864945623603262
aF1.823309262896049
aF2.1176634462191846
aF1.4261480849589299
aF1.7941309830377508
aF1.1755547366332044
aF2.5159239669199938
aF1.3347802380640295
aF1.112945269341187
aF1.0964548735363864
aF2.036183698003579
aF1.163715699683397
aF1.9776877954082008
aF1.494754138706621
aF1.8389234895497235
aF2.2158960450353407
aF1.2994930550480304
aF1.9506989176906306
aF1.6009623738786785
aF2.5032648550634797
aF2.651733088922562
aF1.4710796682480902
aF2.608233117302673
aF1.6445039008490832
aF1.9716562500360915
aF1.5141446491438533
aF2.8504668441143832
aF2.807101533707897
aF2.427104775957413
aF1.065596237993764
aF1.4460761443164147
aF1.133218228831771
aF1.1426308469356135
aF2.5955889908078023
aF2.883896997207163
aF2.0418778134119138
aF1.1227007811161727
aF2.102310000210811
aF1.7077286596000278
aF2.30235105542282
aF1.6476838741345126
aF2.88236652525662
aF1.9077698843998059
aF1.780318052925544
aF2.7911201992565946
aF1.8527991771660672
aF2.7740126642513188
aF1.0459781247493896
aF2.846196260047653
aF1.9694652958975067
aF1.020416000886604
aF2.472191841117911
aF1.725236879842782
aF1.8875828262934289
aF1.1749613506701762
aF2.8924401708301613
aF1.9452534122813754
aF2.3527966893319743
aF1.9212444930699686
aF2.959607103304308
aF1.904719457193034
aF1.2146271475135264
aF1.6951526515078912
aF1.3505955737710609
aF2.302214901747493
aF2.5791465167435152
aF2.3626914534890817
aF1.875557095230582
aF2.4457629709236928
aF2.6454567149672275
aF2.653341585795289
aF1.7888461734424959
aF2.7515924511322574
aF2.609133251111433
aF1.4153414287488946
aF1.0247169299358867
aF2.754592588744792
aF1.7827958979874987
aF2.2586552243867146
aF1.7849804147067332
aF2.9636146346200265
aF2.4897284700889837
aF1.6056150038488664
aF2.5480617886920536
aF1.5443437665186186
aF2.478507472496717
aF1.934406303880419
aF1.099670958407465
aF2.4300534220282985
aF1.1750126062739232
aa(lp10
cnumpy.core.multiarray
scalar
p11
(cnumpy
dtype
p12
(S'f8'
p13
I0
I1
tp14
Rp15
(I3
S'<'
p16
NNNI-1
I-1
I0
tp17
bS'V\xcc\x86\xe7${\xe1?'
p18
tp19
Rp20
aI0
aaF113.86363506317139
aa(g11
(g15
S"\x0c\xba]+'<\xe3?"
p21
tp22
Rp23
I0
tp24
a(g11
(g15
S'\xd0\xdd\x83L\xb4\x91\xe2?'
p25
tp26
Rp27
I0
tp28
asI1
(lp29
(lp30
(lp31
I98
aF0.8243220976741459
aF0.7781360480714883
aa(lp32
F1.0
aI0
aaF1131.6790239810944
aa(lp33
(lp34
I1
aF1.1081706314335789
aI1
aI3
aI1
aI1
aF2.539962445231369
aF1.3268438388423176
aF2.649252191733996
aI3
aF2.343507353000555
aF2.9102547479512495
aI3
aF1.8825899768376828
aF2.3245630508754203
aF1.3128963205924051
aF2.5997031844436176
aF2.1357724671599434
aF2.232665529845892
aI3
aF1.4525018387875046
aI3
aI3
aF2.1955622734569467
aI3
aF2.9601244511088005
aF1.3720761498792626
aF1.4608787170935889
aF1.6892613942070647
aF2.790543300103388
aF2.8525732625824602
aI3
aF2.054112324176392
aF2.8647382517303885
aF2.2798289467015085
aI3
aI3
aF2.4206894978808626
aF1.5851504149333724
aI3
aI3
aF1.9427780768038958
aF1.481566810309863
aF1.4242784482102182
aF1.658876270522088
aI1
aI3
aF2.9001561049859066
aI3
aF2.3527083418993633
aF2.471759783414389
aI3
aI3
aF2.856770733994305
aF1.6132871648509783
aF1.2153517207608682
aI3
aI1
aF2.048673367607783
aI1
aF1.7018167586279582
aF2.100070783401586
aF2.8517197483515346
aF1.7315120062609561
aI3
aF1.9932967688502137
aF2.3555438806378493
aI3
aI1
aF1.7450714367042794
aI1
aI3
aF2.492142722088509
aF2.658597381898928
aI1
aF1.8029823560389535
aF1.0914600547293543
aF1.1236846148725357
aI3
aF1.4851896911707216
aI3
aF2.7662832243773154
aI1
aF1.4023813589776093
aF1.3069375125096547
aI3
aF2.4364132330924737
aF1.22480143155187
aF1.6976711724172944
aI3
aF1.0345293598440484
aF2.769581561362383
aI1
aF2.6655099530259885
aI1
aF1.5863901446043003
aF1.8015928358334903
aF2.1573911647848627
aa(lp35
g11
(g15
S'\xef5v\xc0{\x8d\xdd?'
p36
tp37
Rp38
aI0
aaF163.02340698242188
aa(g11
(g15
S'\x03p\x05\x7fxF\xdc?'
p39
tp40
Rp41
I0
tp42
a(g11
(g15
S'\xbcZ\xdc\x84\xf9]\xdd?'
p43
tp44
Rp45
I0
tp46
asI2
(lp47
(lp48
(lp49
I50
aI1
aF0.9012638264228908
aa(lp50
F1.0
aI0
aaF954.3590099811554
aa(lp51
(lp52
F1.841440616292353
aI1
aI1
aF1.395572852300397
aF1.3251313186923501
aF2.7786408141872925
aF2.222589231927762
aF2.094050130878667
aF1.6374962638400015
aI3
aF1.7984509081549518
aI1
aF1.3071149852008137
aI3
aF1.051244479815058
aF2.498488756767253
aF2.9212312601905843
aI1
aF1.262198561615985
aF2.2815263245466237
aI1
aI3
aF2.091846277087094
aI1
aF1.9007525445296805
aI1
aF2.615403138870081
aF2.5483938758541678
aF1.3079809698567624
aF2.4892712297996784
aF2.696956540150343
aF2.443139365627231
aI3
aF1.4768793751612075
aI3
aF2.4719192842631896
aF2.303367349059381
aF2.806278908088096
aF1.5898211098508188
aF2.4434277991989446
aF2.338731659597004
aF2.929386148278301
aF1.535311203138997
aF2.725381346540995
aI1
aF1.983157757964331
aF2.3775534896354813
aF2.235641840951721
aF2.644682660392979
aF1.0569652847124444
aa(lp53
g11
(g15
S'\xfd\xd0\x7f\xc4\xb1\xfc\xe0?'
p54
tp55
Rp56
aI0
aaF54.350139141082764
aa(g11
(g15
S'E>\xeb\x06S\xe4\xe0?'
p57
tp58
Rp59
I0
tp60
a(g11
(g15
S'\x0b\x9aC\xc5\x82\xe6\xe0?'
p61
tp62
Rp63
I0
tp64
asI3
(lp65
(lp66
(lp67
F82.2
aI1
aI1
aa(lp68
F1.0
aI0
aaF1139.7455270290375
aa(lp69
(lp70
I3
aF2.274587646860293
aF1.5069316851414938
aF1.6125507860812553
aF1.568376516821299
aI1
aF1.7139383377322521
aI3
aF1.605685630455765
aI3
aF1.9683907997633043
aF1.422267811447871
aF1.3339710625482943
aF1.0815839415436215
aF1.0205835241352315
aF1.0030706513921532
aF1.1646585614901526
aF1.941338822915315
aF1.0842575879453578
aF1.1862439850209212
aF2.749768100205612
aF1.6894607816294869
aI3
aI3
aF2.4886169209147933
aF1.2649511130651954
aF2.664530988096145
aF1.0500619969531542
aI3
aI3
aF2.316840034686677
aF2.8138356648302456
aF1.832460981082755
aF2.0959924919563546
aF1.9636105682263818
aF1.5260939838906904
aI3
aF1.4030120176931669
aF2.3369480779088296
aF2.362014353312002
aI1
aI3
aF1.5311854309336628
aF2.4089711804729506
aI1
aF2.1026824185406414
aF1.567783181656213
aI3
aF1.2974755536147182
aF1.369879281151396
aF1.1598598782778846
aF1.3174457207385073
aF2.2761990104915095
aF2.5270015614762578
aF1.2028204822945976
aF2.655917649586865
aF1.1392007452187776
aF2.1555043011398145
aF2.460320734659809
aF2.3396222637195674
aF2.276883186730273
aF1.5769740648096
aF1.7259557166135804
aF2.411101717860507
aI1
aF2.245431686948963
aI1
aF1.6863058718436088
aF2.3118924251098667
aF2.9186810254312805
aI1
aF1.96304365273326
aF2.7360095985067954
aI1
aF1.7980172674175203
aI1
aF1.8290776657339833
aF1.7566307057388129
aI3
aI3
aF2.445963116618846
aF1.0335394429922524
aa(lp71
g11
(g15
S'\xf9\xe5\x90)7\x06\xe0?'
p72
tp73
Rp74
aI0
aaF112.62543988227844
aa(g11
(g15
S'EC\xfcq\xeb\xf2\xde?'
p75
tp76
Rp77
I0
tp78
a(g11
(g15
S'\xa2\xbc\x86\xf2\x1a\xca\xde?'
p79
tp80
Rp81
I0
tp82
asI4
(lp83
(lp84
(lp85
F55.5
aF0.585588722917104
aI1
aa(lp86
F1.0
aI0
aaF923.6942720413208
aa(lp87
(lp88
F2.7528854260462516
aF1.573257414895192
aF2.4498739145077115
aF1.2717687476789328
aF1.640001820360661
aF1.9206933555670889
aF1.3214979680848777
aF2.5083490866878493
aF2.032083341839069
aF2.670984178225699
aF2.6861429500784135
aF2.745173907075656
aF2.8898299859230967
aF2.856436609682215
aF1.3922953050188547
aF1.5878635509500512
aF2.5678728770350014
aF1.6751645700984017
aF2.8265398210778323
aF1.8839417545102077
aF1.008055450421547
aF2.856943225145986
aF2.864661048955189
aF1.9187121137717527
aF1.3724375995213998
aF1.202162232419733
aF2.6997991268288715
aF1.7268836138028825
aF2.2963553086688937
aF1.8101697649891226
aF2.662248055074969
aF1.2691815949659955
aF2.5797117146179156
aF1.0782630753571405
aF2.65288555994038
aF1.5590126553550667
aF1.5101766624296484
aF2.683944275146516
aF1.973007005523428
aF2.816067188890548
aF2.299209959627552
aF1.087214256890832
aF2.6804857707908596
aF1.7828887104938782
aF2.807845312102535
aF2.2533493657979062
aF2.191239901310084
aF2.261738071820824
aF1.806232270026975
aF1.0261045169538157
aF1.6042134076525896
aF1.3421882176394209
aF2.853190406635771
aF2.7011233011291
aF1.4910253171879457
aa(lp89
g11
(g15
S'\x8f\xc7\xe3\xf1x<\xde?'
p90
tp91
Rp92
aI0
aaF63.729119062423706
aa(g11
(g15
S'F|\x97\x9e\x89\xae\xdd?'
p93
tp94
Rp95
I0
tp96
a(g11
(g15
S'\x1e|\xf0\xc1\x07\x1f\xdc?'
p97
tp98
Rp99
I0
tp100
asa(lp101
g24
ag42
ag60
ag78
ag96
aa(lp102
g28
ag46
ag64
ag82
ag100
aaF5712.030594110489
as.