(dp0
S'SE6'
p1
(lp2
(dp3
I0
(lp4
(lp5
(lp6
F93.0
aF0.12026545258261473
aF0.7482921823896191
aa(lp7
F1.0
aI0
aaF3040.469132900238
aa(lp8
(lp9
F1.6096493266846865
aF1.743971893093816
aF1.485077379356322
aF1.3750152568843808
aF1.1753518840503696
aF1.0348184585815365
aF1.3214680043195424
aF1.7904209948729926
aF1.4485561588178224
aF1.4120377970559932
aF1.2003198024188195
aF1.3137186910450747
aF1.9637734936847129
aF1.375692100907708
aF1.7232314773002058
aF1.8657655956732415
aF1.0806816687309952
aF1.5496883965080108
aF1.2369931986075393
aF1.0622220975404555
aF1.652264729140824
aF1.7125215500289146
aF1.5192531533636557
aF1.5060666269314102
aF1.1232947296158002
aF1.1536228537510635
aF1.383165426651901
aF1.7809087672332273
aF1.1658619162609076
aF1.001035331881121
aF1.8725396225673627
aF1.8232410882313679
aF1.5803610123479674
aF1.9674006718619046
aF1.7112976396162596
aF1.0315155661228879
aF1.2385766730442778
aF1.5091189690145876
aF1.348066843293362
aF1.3303632253335385
aF1.3273571748735302
aF1.1552835562211128
aF1.664489561415324
aF1.7483451061753188
aF1.2904578205466728
aF1.5910232468458652
aF1.4281978972390243
aF1.7085244613098642
aF1.109344429814871
aF1.0011142583611163
aF1.5477207125573424
aF1.351040765142634
aF1.4942042328008873
aF1.1312405801865912
aF1.2671947291590484
aF1.4209350509881593
aF1.6359662241330128
aF1.4587577471845838
aF1.4909970755570714
aF1.2013349385643173
aF1.5629330824355954
aF1.1347824527211174
aF1.8332763158659353
aF1.0569459106622192
aF1.8225597453673488
aF1.5349255410135925
aF1.3460505201954238
aF1.7087745373429497
aF1.0882492200721756
aF1.9640860311741914
aF1.0075934219302103
aF1.962402238892833
aF1.2490959217333382
aF1.6038713405174856
aF1.2134019431377512
aF1.8769761159593523
aF1.2356436903332915
aF1.0854122260705807
aF1.6148226369552212
aF1.6031531541024708
aF1.0508336955403776
aF1.7421385568905658
aF1.381507736832646
aF1.9993340425882884
aF1.9301202403882785
aF1.1789904275740177
aF1.2199413019807803
aF1.0739150768164027
aF1.1115334533124646
aF1.5021537111782137
aF1.0326335936680322
aF1.642327682472252
aF1.8461054707093028
aa(lp10
cnumpy.core.multiarray
scalar
p11
(cnumpy
dtype
p12
(S'f8'
p13
I0
I1
tp14
Rp15
(I3
S'<'
p16
NNNI-1
I-1
I0
tp17
bS'\xd09\xe7\x9cs\xce\xe9?'
p18
tp19
Rp20
aI0
aaF62.06658101081848
aa(g11
(g15
S'\x1cwN\xfe\xd1H\xea?'
p21
tp22
Rp23
I0
tp24
a(g11
(g15
S'5\xe6f\xf7\xcc\xa7\xe9?'
p25
tp26
Rp27
I0
tp28
asI1
(lp29
(lp30
(lp31
I142
aF0.885748002775322
aF0.9791389544246485
aa(lp32
F1.0
aI0
aaF3406.8840339183807
aa(lp33
(lp34
I1
aF1.665996620791375
aI1
aF1.3956446674396874
aF1.7522508237993997
aF1.3882434743144982
aF1.0169561583739228
aF1.4021004373076926
aF1.4190181742555819
aF1.9336635400582007
aF1.2059594039785175
aF1.6995594034276227
aF1.8894251098181696
aF1.829870578982569
aF1.0315837267451917
aI2
aF1.005115208528662
aF1.6714344978303117
aI2
aF1.738909899935388
aI2
aF1.7520086097731864
aF1.9754736829934487
aF1.2746539760304874
aF1.8582917962260002
aF1.3708696967994543
aF1.8876867873145406
aF1.7943830803036864
aF1.3944127991927802
aF1.7015309946234354
aI2
aF1.4725553679505345
aF1.6065991737541263
aF1.7109041319372815
aF1.7720112569344761
aF1.6865465199396399
aF1.5855678649951686
aF1.6282360233544377
aF1.525350210395747
aF1.7798367168305145
aF1.7707012159773767
aF1.7080926276689352
aF1.8165652549817723
aF1.2827267638599964
aF1.0788098351190396
aI2
aF1.6396930820514306
aI1
aI2
aF1.724563790130732
aF1.1136386937376797
aF1.6836160461805407
aF1.6235378282197437
aI2
aI1
aF1.7694707560853662
aF1.0689721649163155
aF1.5501572801910763
aF1.7421103864677971
aF1.7141309228157708
aF1.8672767850888283
aF1.6325925557804597
aF1.671219611529423
aF1.6164896481996682
aI1
aI2
aF1.3573293881973023
aF1.3727255781751222
aF1.5392889980533928
aI2
aF1.222086770816499
aI2
aF1.9490059951888428
aI1
aF1.4533189012420304
aF1.3237047535585416
aI1
aF1.427849135078762
aF1.7100837570888003
aF1.3925016736280977
aF1.8092932882463342
aF1.299184287674601
aF1.1640769463407703
aF1.7812594675989561
aI1
aF1.6280317169606358
aI1
aF1.9861323468792371
aI2
aF1.849253583820231
aI2
aF1.7085826179331036
aI1
aF1.1113779931895915
aF1.112280395245946
aI1
aI2
aF1.6248663693244954
aF1.4211633981480418
aF1.4562382791329627
aF1.5534474838327457
aI1
aF1.4291360787799168
aF1.2275078447220844
aF1.2527380234960699
aF1.8185575015469877
aF1.6184953384465681
aF1.3078745796412552
aF1.2791861328074814
aF1.2371318476559865
aF1.8547599403891133
aF1.7915970369356213
aF1.0744066171638056
aF1.7388232559678802
aF1.464256230352248
aF1.6883397823530082
aF1.3875530674190373
aF1.3412164600664926
aF1.818748757080096
aF1.8099377330594768
aF1.4509523449580348
aF1.3439880217071505
aI2
aF1.1636686118370005
aF1.6378530135859073
aF1.750836436309336
aI1
aI2
aF1.2772205668023295
aI2
aF1.8298302648037086
aF1.057755482553322
aF1.5356434014035825
aF1.6197928282804055
aF1.6692233957327325
aF1.4509703404120269
aF1.8482631122094317
aI1
aF1.55967230372097
aF1.0631569375678147
aF1.269742371811175
aF1.1155715877928796
aa(lp35
g11
(g15
S'd\x91A\xcd\x98\xf4\xd3?'
p36
tp37
Rp38
aI0
aaF305.03386211395264
aa(g11
(g15
S'\x9c\xdc\xa0jx"\xc9?'
p39
tp40
Rp41
I0
tp42
a(g11
(g15
S'\xd8l\xab\x94(g\xd0?'
p43
tp44
Rp45
I0
tp46
asI2
(lp47
(lp48
(lp49
I78
aF0.350642531652551
aF0.7287025252877896
aa(lp50
F0.75
aI0
aaF3284.719701051712
aa(lp51
(lp52
F1.2437119407325237
aF1.4103339635954972
aF1.3135965933718143
aF1.5041883444621067
aF1.0223959214651186
aF1.66279938762928
aF1.5975604738228406
aF1.0872178505313903
aF1.594693143842083
aF1.1531307657484464
aF1.7946703436879452
aF1.8192738471169356
aF1.845483886577663
aF1.6123919877679587
aF1.6432464509418967
aF1.6851427266834165
aF1.3649704564439225
aF1.774053727975688
aF1.2983737387722898
aF1.0669351602507693
aF1.8038949673796434
aF1.775146851322267
aF1.746656517908102
aF1.29815563659356
aF1.6991239405336194
aF1.7648092519220024
aF1.0141184312760754
aF1.3725956480024717
aF1.8744373942073471
aF1.1099629190024984
aF1.5556359814470384
aF1.2509248686430148
aF1.8140063895855851
aF1.3249458016381621
aF1.297940304423681
aF1.383237107065821
aF1.3805141425694356
aF1.1154812752261922
aF1.423520211013841
aF1.8971185837733202
aF1.1424870282203154
aF1.830678637470152
aF1.501946049142036
aF1.5089571276741056
aF1.1511270270379363
aF1.8601203334044158
aF1.3743435970285725
aF1.6435608198560954
aF1.1375897197082727
aF1.2055375753576927
aF1.1488740191102096
aF1.0435414554190443
aF1.4784944045281936
aF1.2350903153594306
aF1.3395757508823056
aF1.979290581490007
aF1.4510487513023134
aF1.7581145293651677
aF1.7350329373130677
aF1.0299603963619521
aF1.4787387531651957
aF1.5935935238877488
aF1.6206924830580567
aF1.9367038904509912
aF1.9659550748914683
aF1.9032556634928954
aF1.9517775153503099
aF1.1999976716410363
aF1.120463582415595
aF1.405605204784061
aF1.1281758895235674
aF1.783398583811663
aF1.9125640177966685
aF1.5688848986881752
aF1.5514889848185351
aF1.5731738669722892
aF1.023306500650023
aF1.7796839153379027
aa(lp53
g11
(g15
S'\xcf\x01\xe4\xb1:r\xe5?'
p54
tp55
Rp56
aI0
aaF72.74671220779419
aa(g11
(g15
S'\xd1pR\xf7\xe5\xb1\xe5?'
p57
tp58
Rp59
I0
tp60
a(g11
(g15
S'J^\xc8\xc9,?\xe6?'
p61
tp62
Rp63
I0
tp64
asI3
(lp65
(lp66
(lp67
I113
aF0.2270898552698447
aF0.830917703617386
aa(lp68
F0.75
aI0
aaF3843.0535628795624
aa(lp69
(lp70
I2
aF1.4354950510570113
aF1.2897136004413705
aF1.1697582105052926
aF1.4143177587045819
aF1.0237684576374078
aF1.686034662189732
aF1.9698643072566435
aI2
aF1.8322378924803653
aI1
aF1.606688170355434
aI2
aF1.8746557635278704
aF1.22614440550114
aF1.5076379139431964
aF1.75052122515618
aF1.6633269636614096
aF1.098452572717795
aF1.417597747595893
aI2
aF1.8152467575158344
aF1.7035216755338722
aF1.95587341113802
aF1.145795350683756
aF1.2834146166812919
aF1.9079657083844173
aF1.7280177901214029
aF1.2848221953447816
aF1.3134217014932197
aI2
aF1.1858457482631601
aI2
aI2
aF1.6988602086552342
aF1.0389891929813886
aF1.6992003014407087
aF1.0952112149443944
aF1.4952560916540227
aF1.2813342129151861
aF1.4274281212617217
aI2
aF1.749072004468044
aF1.6630164996930872
aI2
aI2
aF1.5755211922201715
aI1
aF1.6001921850549032
aF1.6988450584377632
aI1
aF1.0350331277385578
aF1.7440272854554202
aI2
aI1
aF1.372662824774538
aF1.3022570591740976
aI2
aF1.6400829640411965
aF1.124491512660112
aI1
aI1
aI1
aI1
aF1.2665216441518865
aI1
aI2
aI1
aI2
aF1.3339923254097776
aF1.3810825188892868
aF1.0216481472882397
aF1.5185776467470953
aF1.9131796339437357
aF1.7435759905608437
aI1
aF1.7545953302674908
aI2
aF1.453736994913773
aF1.4365249069115598
aF1.8698912594863268
aF1.5490781408595982
aF1.158554330433084
aI2
aF1.8640477841371905
aI2
aI1
aI2
aF1.9038123855768183
aF1.5276162801406352
aF1.9505567933741697
aF1.1001124859114175
aI1
aI1
aI2
aI1
aF1.2681267165891499
aI1
aF1.1529031592953074
aF1.3502625778367954
aI1
aI2
aI1
aI2
aI2
aI2
aI2
aF1.7384718816451676
aF1.2440978335837662
aF1.9412659164729933
aI1
aF1.9994375466724859
aF1.4988153868041787
aa(lp71
g11
(g15
S'\xe4\xa6|\xeeA\x80\xe7?'
p72
tp73
Rp74
aI0
aaF101.13113498687744
aa(g11
(g15
S'\x17\x01\xb3\xb1\xa7\x05\xe6?'
p75
tp76
Rp77
I0
tp78
a(g11
(g15
S'jW\xa2v%j\xe7?'
p79
tp80
Rp81
I0
tp82
asI4
(lp83
(lp84
(lp85
I135
aF0.28907741583523305
aF0.7790554828196189
aa(lp86
F1.0
aI0
aaF3360.9467611312866
aa(lp87
(lp88
F1.4154818127770266
aF1.540186213167194
aF1.0890240063911456
aF1.4199125027096562
aF1.8808155061450877
aF1.0467758581778872
aF1.6879530954752315
aF1.3491941782127224
aF1.4887909136474282
aF1.932758868544344
aF1.9649510963730226
aF1.7268195835095155
aF1.4758301875461226
aF1.4677121426750626
aF1.2686977495126621
aF1.5329457121551808
aF1.2217666707312538
aF1.5420310574850031
aF1.5602112955825536
aF1.9358314745854035
aF1.9891405335039272
aF1.6268079206860868
aF1.6862628363604366
aF1.0803088522526685
aF1.6896081354520072
aF1.7827953899191809
aF1.36507657898722
aF1.6432862412787375
aF1.7652972594089542
aF1.002260691832532
aF1.720496771172865
aF1.7588760823207523
aF1.6360928878082635
aF1.197526654735125
aF1.77480556072342
aF1.8158948084513886
aF1.7526315792367555
aF1.8496029247900019
aF1.063607455386709
aF1.868254333113216
aF1.2586152908017503
aF1.381749594788957
aF1.3284358192818502
aF1.2932163719055878
aF1.3710707023356168
aF1.285364639325444
aF1.4235941915944108
aF1.6895869010701956
aF1.1238906002779718
aF1.8169522678811894
aF1.037274605301321
aF1.3241038605003737
aF1.7341904078659447
aF1.0262164100474807
aF1.2611140297903225
aF1.6569982769072629
aF1.149677536448477
aF1.9901082006468611
aF1.9306880335431407
aF1.063456498086199
aF1.860191047214045
aF1.087385003983927
aF1.846343567255426
aF1.5961007592516796
aF1.2586462956128208
aF1.3825811321849144
aF1.6258183908643318
aF1.9532580429038802
aF1.4475865592098396
aF1.2145327411584537
aF1.6469797700869826
aF1.6030465909756932
aF1.9718851371705346
aF1.355870404437528
aF1.6834687339176562
aF1.5489082458485517
aF1.917935498762741
aF1.878568879062527
aF1.7272584595401144
aF1.6906898180712582
aF1.2640080536729354
aF1.9405174787580486
aF1.423581294928875
aF1.4864965708828162
aF1.5389228383788267
aF1.1804967072327333
aF1.0172816411389178
aF1.3154541973298355
aF1.4682711543033335
aF1.3256633309232135
aF1.0183851160896231
aF1.6950535013027443
aF1.5247108564474052
aF1.4534426080499152
aF1.4896373164479528
aF1.9462907156968703
aF1.0597492484901334
aF1.1916187456148761
aF1.4354209170890408
aF1.1273198053640057
aF1.0021415820514943
aF1.4893556798224992
aF1.7193918114223141
aF1.0517763112549654
aF1.3152580549957513
aF1.7145776113978415
aF1.7942586590715282
aF1.4950204368200195
aF1.203797621245458
aF1.7814635522643645
aF1.7033785213706074
aF1.4450994039774283
aF1.2779707708068178
aF1.6878617847500867
aF1.2628068596680624
aF1.7693944239277841
aF1.8040310768198902
aF1.4298391967811184
aF1.5255041529111786
aF1.6309104456174435
aF1.4825981605179008
aF1.9383400052447461
aF1.8118134703450997
aF1.8901340807659288
aF1.3050941672605674
aF1.855881293353212
aF1.715774948556993
aF1.9540329566262218
aF1.6658130808403697
aF1.8398389830539412
aF1.910585943083901
aF1.5011356655490822
aF1.894747339806186
aF1.6453691615386299
aF1.0031300255254663
aa(lp89
g11
(g15
S'\xeb16,\xee~\xe2?'
p90
tp91
Rp92
aI0
aaF157.37354803085327
aa(g11
(g15
S'D\xcd`vs\x96\xe2?'
p93
tp94
Rp95
I0
tp96
a(g11
(g15
S'\xdf\xe4%\x10\xd1Q\xe4?'
p97
tp98
Rp99
I0
tp100
asa(lp101
g24
ag42
ag60
ag78
ag96
aa(lp102
g28
ag46
ag64
ag82
ag100
aaF17634.716012954712
as.