(dp0
S'scifi'
p1
(lp2
(dp3
I0
(lp4
(lp5
(lp6
F79.8
aF0.666670892193476
aI1
aa(lp7
F1.0
aI0
aaF2090.1165170669556
aa(lp8
(lp9
F2.458988660229406
aF1.1778156103093425
aF1.2478943713668795
aF1.6819079774806245
aF2.3182312033346184
aF2.144846849533097
aF2.919942666772599
aF1.9284608870143545
aF2.9566592621424475
aF2.5182961658724654
aF2.792360412847141
aF2.6341384377415107
aF1.1079073875104974
aF2.0718683102885826
aF2.433594478161062
aF2.127891048869035
aF1.6453563249106244
aF2.85679859771328
aF1.4921467660805312
aF2.2565322736098974
aF1.2260070096708557
aF1.8225712309304332
aF1.7423854448494145
aF2.3429974414989525
aF1.2864664443014708
aF2.755025610130577
aF1.07139144268697
aF2.3848071133819464
aF1.1867252159040218
aF1.319766964799581
aF2.277152010355513
aF2.259827315076854
aF2.103141922493305
aF2.842830507119098
aF1.2137808151023286
aF2.935559300040568
aF2.414888217043427
aF1.6110424258495497
aF2.4917132353859164
aF2.320049144487458
aF1.0474043727555575
aF2.936120700647921
aF1.8410128286092955
aF2.599152489327718
aF1.7174424975297704
aF2.1392819647942236
aF1.9840597488110703
aF1.427050847854287
aF2.318978554739088
aF1.165111086887731
aF1.2745899199888986
aF1.1669397160282926
aF2.588511430659333
aF1.0645921611397842
aF2.153811689765755
aF1.2551763575391484
aF1.2243857085949912
aF1.814625914562997
aF2.78455694304211
aF2.0364307500729084
aF2.374500499856924
aF1.7071617890552957
aF2.9450113673551463
aF2.7064231441065028
aF1.0784906548832254
aF2.824907320448978
aF2.795643521172109
aF1.103119511585149
aF1.5348473900197155
aF1.5340237142368054
aF1.7467443271858285
aF1.7358427619795922
aF1.7230921268414616
aF2.1349625047532763
aF1.6122478204785464
aF2.3649281728697993
aF1.7378607050785635
aF2.0516778301299174
aF2.143674998361731
aa(lp10
cnumpy.core.multiarray
scalar
p11
(cnumpy
dtype
p12
(S'f8'
p13
I0
I1
tp14
Rp15
(I3
S'<'
p16
NNNI-1
I-1
I0
tp17
bS'\x93\xf1\xdb\xa5\x9e\x8c\xdf?'
p18
tp19
Rp20
aI0
aaF235.68726801872253
aa(g11
(g15
S'\x8d\xfc\x875D\xc2\xde?'
p21
tp22
Rp23
I0
tp24
a(g11
(g15
S'\xcd\xf2 ]\x80\xb3\xdf?'
p25
tp26
Rp27
I0
tp28
asI1
(lp29
(lp30
(lp31
I97
aF0.7038290180519774
aF0.9372441343028531
aa(lp32
F1.0
aI0
aaF2186.4563059806824
aa(lp33
(lp34
I3
aF2.706968723085456
aF2.828277559141923
aI3
aF2.785967239588553
aF1.7863561822555718
aF2.1753587832717236
aF1.4723598643149491
aF2.495242332535097
aI1
aF1.1842137725286714
aI1
aI1
aF1.6249986034697876
aF2.8341970557448875
aF2.396744420191412
aF1.5114816718677453
aF2.2941176448711325
aF2.1358396653940437
aF1.4119325778331766
aI3
aF2.739512206858749
aF2.796336302493262
aF2.00839221252906
aF2.3769521252807997
aF1.45736702265483
aF2.6864175548086187
aF2.8993251324873497
aF2.004595833908314
aF2.142468279587208
aF1.9259148208703278
aF2.6464232717467255
aF2.1447548409518538
aI1
aF2.997189367659129
aF1.4736010606794507
aI3
aF1.9681216331857496
aI3
aF1.9921897897679963
aF1.9601923392433869
aI1
aF2.507206325882113
aI3
aF1.8026188445521685
aI3
aF1.8965427756574393
aF1.5609844600430889
aF2.66502788108077
aF1.3476313525503354
aF1.4927965943197912
aF1.9843692575564174
aF2.529338862869944
aI1
aF1.491212472389648
aF1.6532609128693667
aF2.7705780619418574
aF2.625536396394863
aF2.5970724123807596
aI3
aI3
aF2.35446577749993
aF2.079957812918691
aF1.203041687444937
aF1.2160449671348956
aF1.639205751636327
aI1
aF2.4030664250755773
aF2.646497846485454
aF2.3042484100868794
aF1.5976027752925839
aF1.1920505349440913
aF1.1459854379952503
aI1
aF1.2265855200365414
aF1.65714851935535
aI3
aF1.4589620673564343
aF2.5198487128381557
aF1.9963599412628494
aF2.371905625699955
aF1.0714294097827388
aF2.2390002260768203
aF1.4808609041888374
aF2.4347374891021945
aF1.1715365469788845
aI3
aF1.6073669329599336
aI3
aF1.5402723555381606
aF1.6776973253109242
aF1.803564023362177
aF2.6810599864315154
aF1.4706812232564093
aI1
aF1.244364290528746
aF1.7720206400847232
aa(lp35
g11
(g15
S'\x8a\xfb4Q\xacT\xe1?'
p36
tp37
Rp38
aI0
aaF285.33148097991943
aa(g11
(g15
S"\x14\x9e\xf0\x84'<\xe1?"
p39
tp40
Rp41
I0
tp42
a(g11
(g15
S'w\x8d{"\xf1\xd1\xe1?'
p43
tp44
Rp45
I0
tp46
asI2
(lp47
(lp48
(lp49
F91.7
aF0.7035589756122412
aF0.4808303100607788
aa(lp50
F1.0
aI0
aaF2485.6764199733734
aa(lp51
(lp52
F2.330151864091545
aF1.345506110466286
aF2.362746738239809
aF2.730604808252359
aF2.2994046255704923
aF1.0834014118402826
aF2.7551652360938332
aF1.8113283263102298
aF2.579853740604614
aF1.9897363184926817
aF1.0240787994917495
aF1.8866044545000098
aF2.1744979741796566
aF1.923800025397339
aF1.5556505756339931
aF1.0861417301459277
aF1.4284821042086782
aF1.0778163216479437
aF2.3180725621687985
aF1.7209023184119694
aF2.8839309902943886
aF1.461316943279942
aF1.3691151334087142
aF1.568990333931007
aF1.0443563715666226
aF2.9429192610392985
aF1.4393391280365513
aF1.1546568128787975
aF2.045908919273054
aF2.854446889268048
aF2.5624536988472397
aF2.573217812146863
aF2.4517913709001387
aF2.1881593954824554
aF1.6564209737476687
aF2.3080245188310364
aF2.6626728944470885
aF1.6631743705768554
aF2.042806175714568
aF2.9261963270838005
aF2.4782622334153714
aF1.3018684749762992
aF2.7460333471409077
aF1.0357832521270611
aF1.6322752449844837
aF2.856874027549423
aF2.556337961675126
aF1.1188951568735128
aF2.947303622170037
aF1.063350245892756
aF2.774067195976736
aF1.100635607617636
aF1.0704570489212326
aF2.2776978063114766
aF1.7765765925506471
aF2.5014289517085024
aF1.6350001370118405
aF1.4845753554882126
aF2.507462188699555
aF2.6773587755276025
aF1.0094838739912384
aF1.6022823116795293
aF2.1034334617152948
aF1.21170695603665
aF1.5098199250498925
aF2.783376248950086
aF2.0289350638114136
aF2.0301144793716164
aF2.826874849626308
aF2.0977193591390364
aF1.7270952005642177
aF1.273094849155083
aF2.5449878237979346
aF2.2495794692607847
aF1.7233681131382015
aF1.62141233729087
aF1.1388414974000944
aF2.6238647760274345
aF1.3925879633511162
aF1.086183172004181
aF2.447776544857545
aF1.3954264713819267
aF1.2691410374916767
aF2.929585859279167
aF2.5317970285259013
aF1.1555185531975949
aF1.0450740571693493
aF2.3192241542994987
aF2.365921698271455
aF1.5538025036852403
aF1.7687935095128153
aa(lp53
g11
(g15
S'\x85~\xdd\xda\xf2w\xe9?'
p54
tp55
Rp56
aI0
aaF216.80073595046997
aa(g11
(g15
S'\\\x8e\x8c\xc6\xcd\xe5\xe8?'
p57
tp58
Rp59
I0
tp60
a(g11
(g15
S'\xd7\x9b@"e)\xe9?'
p61
tp62
Rp63
I0
tp64
asI3
(lp65
(lp66
(lp67
I57
aF0.5795346841246302
aF0.9690069256584897
aa(lp68
F1.0
aI0
aaF2190.023693084717
aa(lp69
(lp70
F1.0441657468335819
aF1.3258298276832199
aF2.543250306039206
aF1.2223101679766082
aF1.457408457058585
aF1.2202302533972205
aF2.152093957366838
aF2.485451914384633
aF1.9579266241588829
aI3
aF2.760637560765641
aF2.765010101588345
aF2.2530420321439038
aF1.0410609839872866
aF1.8753746849540562
aF1.860744523507304
aI3
aF1.5322381371504707
aF2.057765552862934
aF1.6860738830977162
aI3
aF2.5844859759641925
aF2.852737952540254
aF1.2362703201442682
aF1.438238846295279
aF1.9898389042980784
aF2.175765997010119
aF2.5969868493790473
aF1.8266383179025
aF2.3628418640377538
aI1
aF1.2260250087802687
aF2.133170100753029
aF2.0000168449802214
aF1.9063134137945354
aF2.8302475834186813
aF1.4007025603895653
aF2.421289831928342
aF1.9663199828850217
aF2.660348689071021
aF2.1496173666042475
aI3
aF2.4523710160430063
aF2.706227692853486
aF2.2601936319383604
aI1
aI3
aF1.0919198926916667
aF1.02920228500964
aI1
aI1
aI1
aF1.6680624609002188
aI3
aF2.9954793055579114
aF1.886607450438022
aF2.1258899866201877
aa(lp71
g11
(g15
S'vy\x07\x1c)\x1a\xe2?'
p72
tp73
Rp74
aI0
aaF154.46336913108826
aa(g11
(g15
S'\xfb\xb2g>ZJ\xe1?'
p75
tp76
Rp77
I0
tp78
a(g11
(g15
S'\x1c\xafhZ\xe5\x8b\xe1?'
p79
tp80
Rp81
I0
tp82
asI4
(lp83
(lp84
(lp85
F73.7
aF0.49572266811563315
aF0.9586488747446437
aa(lp86
F1.0
aI0
aaF2100.33602809906
aa(lp87
(lp88
F1.04900049770489
aF2.6404599259523773
aF2.5943588402468487
aF2.695356160156837
aF1.1347452109562481
aF2.382051837968432
aF1.6082916209874816
aF1.743509341225618
aF2.7145774422212496
aF1.8644513647950995
aF2.7293347969581365
aF2.817253033103697
aF2.691764999031487
aF2.4185391691502818
aF2.890629003504284
aF1.6557440803823862
aF2.535217175896994
aF2.618778726197479
aF2.225245563844756
aF2.6177708953079795
aF2.689327457115258
aF1.3027216267096478
aF2.441866382844388
aF1.3604669300645031
aF2.3967678744106067
aF1.8295787193672397
aF1.1100650416084175
aF2.5405964737035838
aF2.949968515406592
aF1.4055169705502464
aF2.325478942076199
aF2.401570743361525
aF2.952897654995957
aF2.1358585124855125
aF2.1513032627932818
aF1.664207062618564
aF1.1658184998748276
aF2.4131611926845604
aF1.5738252345070392
aF1.3345392989970875
aF2.5875674448533457
aF2.7240559428985995
aF1.4316575998950511
aF2.7459375511167634
aF2.93180765734306
aF2.539626058657943
aF2.9208020616073256
aF1.547894796577783
aF2.32696568721041
aF1.6647082793526504
aF1.0641119282204456
aF1.2843742108762575
aF2.337816712686903
aF1.8279127317893025
aF1.6469985671456433
aF1.67026433307765
aF1.8945138595912228
aF1.4091462142148412
aF1.355734801884276
aF2.0796738719664294
aF1.5303885635229646
aF1.4991529265625674
aF1.4413182222142
aF1.0712306169895258
aF2.2143382856575045
aF2.993128665781943
aF2.65355021342595
aF2.2901752875073935
aF2.3376798653835285
aF2.0500294890383257
aF2.571375246335132
aF2.836968542816919
aF1.2374190616839507
aa(lp89
g11
(g15
S'\xe1\xdf\x963\x1d\x8e\xe2?'
p90
tp91
Rp92
aI0
aaF170.79639410972595
aa(g11
(g15
S'C\xe4~\xda\x11\xb6\xe1?'
p93
tp94
Rp95
I0
tp96
a(g11
(g15
S'\xd2\x0b\xe3\x17\x19\xb8\xe1?'
p97
tp98
Rp99
I0
tp100
asa(lp101
g24
ag42
ag60
ag78
ag96
aa(lp102
g28
ag46
ag64
ag82
ag100
aaF12115.958059072495
as.