(dp0
S'rpg'
p1
(lp2
(dp3
I0
(lp4
(lp5
(lp6
I62
aF0.5179690671370292
aF0.8366474469274221
aa(lp7
F1.0
aI0
aaF1732.7290840148926
aa(lp8
(lp9
F2.4828879395083403
aF1.3318618303806666
aF2.1262014643265275
aF1.5402701219871497
aF1.0076445129449785
aI3
aF1.112363500215888
aF1.9310379652114344
aF2.824456956226534
aF1.870786166838331
aF1.878991309400699
aF1.4153069814155
aF2.3636180179644937
aF1.707582756632059
aF1.6039347512498088
aF2.2285223194506427
aF2.532668988473093
aF2.948762109817867
aI1
aF2.7537624208575924
aF2.4414971089206787
aF2.1146592471730594
aF1.8262044105250734
aF1.353825751733947
aF1.949206439403479
aF1.284739056056388
aI3
aF2.241946447314767
aF2.5944731887933528
aF1.2661465066204385
aF2.4123969115341786
aF1.93711197244882
aF2.717236374148682
aI1
aF2.1786665833857874
aF2.956488588051989
aI1
aI1
aI1
aF2.0358659526629252
aF1.939947785195231
aF1.0008810688073324
aF1.1946156316412757
aF2.3607597241401495
aF1.2117966518374208
aI3
aF1.9174318637238748
aI1
aF2.63213137303066
aI3
aF1.1349541582982692
aF2.2448297401259305
aF2.0813002689869737
aF2.722216222441941
aI1
aF1.1850965815746282
aF2.3447685419878095
aF2.952603923049685
aI1
aF2.0475788366623644
aF2.206361115235012
aF2.323743185537403
aa(lp10
cnumpy.core.multiarray
scalar
p11
(cnumpy
dtype
p12
(S'f8'
p13
I0
I1
tp14
Rp15
(I3
S'<'
p16
NNNI-1
I-1
I0
tp17
bS'\x8c]\xbdP*q\xd2?'
p18
tp19
Rp20
aI0
aaF224.21422219276428
aa(g11
(g15
S'Y\xf3\xf5hb\x8a\xd3?'
p21
tp22
Rp23
I0
tp24
a(g11
(g15
S'\xa1\xb6\x9ajU\x1c\xd3?'
p25
tp26
Rp27
I0
tp28
asI1
(lp29
(lp30
(lp31
I84
aF0.713241170211165
aF0.9628486708495957
aa(lp32
F1.0
aI0
aaF1679.065601825714
aa(lp33
(lp34
F2.560126561840022
aF2.0506605917366505
aF2.98818278803435
aF1.7825057231011472
aF2.5612511533092395
aF1.3171610042144763
aF1.1479631589105599
aF1.1786058893150468
aF1.9794391352058012
aF1.4490319768131155
aF2.2955154161976976
aF2.0186824541008415
aF1.8730168967448229
aF1.71448583050501
aF2.978049716419225
aF2.2283841070233885
aF1.804343048647659
aF2.0139520331518193
aF1.7141455677922404
aF2.077512566755078
aF2.122725576987137
aF2.587081954154211
aF2.1312576863623143
aF2.184337296614938
aF1.2556533383512791
aF1.2945476291982692
aF1.665318772020758
aF1.3007924960045607
aF2.9528368207373052
aF2.7456178173656425
aF2.8236652571383054
aF1.657698194701471
aF1.5128287874469326
aF1.6152931663382941
aF2.919483948236186
aF2.4575929703592534
aF2.840716573745464
aF2.3405732116318827
aF1.6244226377466875
aF1.1253628374306848
aF1.7467149388046834
aF2.648611919847588
aF2.127009306929229
aF2.0872048944422246
aF1.0144900629550164
aF2.7211657154788984
aF2.4830143492841077
aF2.8451622864667305
aF2.303421643756037
aF1.5068597695025323
aF2.2613940657089113
aF2.1319833343362697
aF1.4617979067822398
aF1.2094881744295365
aF2.0512959179454113
aF2.7073142961774845
aF1.1150745989282942
aF1.1650832517805072
aF1.2302595097392948
aF2.2906488863384498
aF1.9530712746656047
aF2.6252368401613557
aF2.556231227959569
aF2.5718831390982766
aF2.423092718034877
aF2.9829557454192246
aF1.7587219094108546
aF2.812766375507022
aF1.1566463005842904
aF1.5544969668613007
aF2.289347803693044
aF2.9244935691331873
aF1.7057838565355565
aF1.20146551499267
aF1.1784931295840295
aF2.7708888988105382
aF1.9176864921031826
aF1.9074336731416428
aF1.670233944902774
aF1.747996898739078
aF2.4935841677262034
aF2.950324355823671
aF2.589399083817454
aF1.085827125169567
aa(lp35
g11
(g15
S'\xe9L\xb4\xc9LA\xd4?'
p36
tp37
Rp38
aI0
aaF286.12064599990845
aa(g11
(g15
S'=\x12\xc3]\x16\x86\xd2?'
p39
tp40
Rp41
I0
tp42
a(g11
(g15
S'+\x04\x1fuK\x15\xd2?'
p43
tp44
Rp45
I0
tp46
asI2
(lp47
(lp48
(lp49
F80.0
aF0.9319729478416858
aI1
aa(lp50
F1.0
aI0
aaF1658.7686681747437
aa(lp51
(lp52
F2.171115949144334
aF1.6913022617657378
aF2.653057807134215
aF2.457540266161191
aF2.253561080662686
aF1.144049481270423
aF2.2010712787001143
aF1.9852338567693242
aF1.800492073586829
aF1.637627974190077
aF1.303175239056196
aF1.9196985620280962
aF2.350910356724399
aF1.7039526610572593
aF2.8257828788617316
aF1.7471214053794943
aF2.5501913465945147
aF1.4820059299986694
aF2.9107855449161306
aF1.7372687693312587
aF1.4706915391918458
aF2.0348929624000194
aF2.7355517648975036
aF2.194114069464229
aF2.4600744989478756
aF2.394284782336597
aF1.7371078980148624
aF1.1168787979009087
aF2.317254679963442
aF1.483058295065839
aF2.7770766295672025
aF2.7234102440536763
aF1.9393346089001686
aF1.7879545099540113
aF1.7070094083406524
aF1.396227606861132
aF2.236353574088967
aF2.9356960797678675
aF1.6284565815276077
aF1.668459054158063
aF2.478815414373855
aF1.0421462379023032
aF2.9911461963954777
aF2.98172010814623
aF2.483724068301565
aF1.741254349438891
aF2.565054364189284
aF1.9374030198591747
aF2.6948289188403263
aF1.959078736136779
aF2.9301757748021693
aF1.6142720113886044
aF2.3518179959067247
aF2.1480201600606326
aF2.5460627131334816
aF2.4621699096170357
aF2.2335823350326973
aF2.7757050532295207
aF1.08292637115705
aF1.4256414870957406
aF2.8299124846614645
aF2.5558547323855985
aF2.0551321787244134
aF2.556064677942217
aF1.8737626403554373
aF2.6801384522875296
aF1.5738026705599548
aF1.7008025955763475
aF2.797613581195405
aF2.6631031229863984
aF2.1678924263801145
aF1.9248705820070033
aF1.8215872285057022
aF2.9825379546720825
aF1.7657619022388569
aF1.1064227207423056
aF1.5281323690395605
aF2.788857453752021
aF1.6980286160770244
aF2.037617039837192
aa(lp53
g11
(g15
S'x\xe8\xd9#\xc0\xe1\xd5?'
p54
tp55
Rp56
aI0
aaF280.5762629508972
aa(g11
(g15
S'\x19\x99I\xd3w\xc2\xd1?'
p57
tp58
Rp59
I0
tp60
a(g11
(g15
S'\xd6+Nd\xb5\xd0\xd1?'
p61
tp62
Rp63
I0
tp64
asI3
(lp65
(lp66
(lp67
I55
aF0.7756666634351005
aF0.7633122633622568
aa(lp68
F1.0
aI0
aaF1658.2861258983612
aa(lp69
(lp70
F1.3647497287150485
aF2.0327744377248784
aF1.6437251303322618
aF2.466607420028099
aF1.885043812143146
aF2.1236829525495944
aF2.4439847272460513
aF2.1008530297119608
aF1.2950232315624624
aF2.2558532134885776
aF1.5273095270040318
aF2.0030338631498035
aF2.718129051753116
aF2.1931459310185764
aF2.70803547016677
aF2.995219984370994
aF2.514812088028996
aF2.886923901935462
aF2.9020363802115
aF2.0311818506292743
aF1.105018906490699
aF2.8254343100331045
aF1.0325521725748585
aF1.1577769063444385
aF2.3130653520065785
aF2.2155629742954117
aF2.7306235966544716
aF2.51550088312086
aF2.3332248154755444
aF2.260664112238767
aF2.069267838677011
aF2.562227482271921
aF2.1583202020673706
aF1.858759639981951
aF1.2433810075933671
aF1.6738468655512924
aF2.3951734480967475
aF2.2309175346297834
aF1.5762202376373133
aF1.9228758283983909
aF2.5558580431124893
aF1.3118527407260392
aF1.2699170013976038
aF2.1007311848151575
aF1.747700324624527
aF1.289703730627195
aF2.4832112181251933
aF2.3481244799219123
aF1.6029037921486435
aF1.8571930594224064
aF1.4985724292364235
aF2.7818868736940328
aF1.610730748303606
aF2.425327309027936
aF1.2229931788605082
aa(lp71
g11
(g15
S'\x1f\x87\xac\xbe\xc1\xa2\xd5?'
p72
tp73
Rp74
aI0
aaF199.60683012008667
aa(g11
(g15
S'\x10pMc\x8b\x7f\xd4?'
p75
tp76
Rp77
I0
tp78
a(g11
(g15
S'\x10F\xda\xb1\x02a\xd4?'
p79
tp80
Rp81
I0
tp82
asI4
(lp83
(lp84
(lp85
F60.3
aF0.6651595458780407
aF0.714093652304284
aa(lp86
F1.0
aI0
aaF1665.8656499385834
aa(lp87
(lp88
F2.391250443557398
aI1
aI1
aI1
aF2.6102017527723347
aI3
aF1.7911641723625524
aF1.3531616994620521
aF2.2349437837951154
aF1.0205021486751253
aI1
aF1.3489226027036008
aI3
aI1
aF1.8101838417556262
aF2.069128372580739
aF2.693113937747211
aF1.7508290070346222
aF1.9266334860896577
aI1
aF2.1799632826171953
aF2.2231707548980943
aF1.7800926093585867
aF2.892245588948157
aF1.2323850031030605
aI1
aF1.6394088579969648
aF2.599281067424635
aF2.7990678267618776
aI1
aI3
aF1.996750809152357
aF1.8230330386310607
aI3
aF2.559253775903856
aF2.126397324150527
aF2.229351387009499
aF2.610222096527627
aI1
aI1
aI1
aF2.4923562461761786
aF2.1392112017129907
aF1.8411734832220115
aF2.3890011061999727
aF2.1517626945813375
aF1.1827654522098117
aF2.2043167274715922
aF2.9986146860227825
aI3
aF1.126278889265829
aI3
aF1.0441052962539072
aF1.6717395299179094
aF1.5838808142663252
aF1.8358357653900046
aI3
aF1.9901680090133083
aF1.7130353546977897
aF2.1605987362750705
aa(lp89
g11
(g15
S'\xb2\x95j\xd7\xbe/\xd4?'
p90
tp91
Rp92
aI0
aaF213.52629399299622
aa(g11
(g15
S'e\xf3\x18tP\x18\xd3?'
p93
tp94
Rp95
I0
tp96
a(g11
(g15
S'\xca\x0f\\\\\xc8\xb6\xd2?'
p97
tp98
Rp99
I0
tp100
asa(lp101
g24
ag42
ag60
ag78
ag96
aa(lp102
g28
ag46
ag64
ag82
ag100
aaF9599.122193813324
as.