(dp0
S'SE0'
p1
(lp2
(dp3
I0
(lp4
(lp5
(lp6
I99
aF0.7053292829231791
aF0.8219976159641771
aa(lp7
F1.0
aI0
aaF1210.0212349891663
aa(lp8
(lp9
F1.058147051190021
aF1.2937402279062993
aF1.5706899355719852
aF1.5684223249942786
aF1.306578381612693
aF1.591107468994209
aF1.8154581608456184
aF1.563956027903194
aF1.5905520115715714
aF1.9543154109219554
aF1.502713648312684
aF1.1421253660047817
aF1.9927009735408543
aF1.304350025457321
aF1.1771535964853226
aF1.4493784007648378
aF1.3524766983022418
aF1.8392877491255342
aF1.335775904718298
aF1.0732571836677298
aF1.0403507538004577
aF1.7677018430864253
aF1.5831975742611675
aF1.7655594265564734
aF1.044188536975134
aF1.3931062711839142
aF1.9461687998318968
aF1.2164470295909122
aF1.592385849210124
aF1.6725697283249188
aF1.5348459842514974
aF1.1696106528628056
aF1.581494933306536
aF1.3143910000896062
aF1.7337638388823473
aF1.951239261734131
aF1.3290081449655753
aF1.33973120196457
aF1.8312437720803951
aF1.174373196447944
aF1.890690055045682
aF1.25779693438366
aF1.295714500788224
aF1.1239627056788146
aF1.1140655817076777
aF1.1790579082451869
aF1.5041501323122515
aF1.6973284109011102
aF1.3423167690320335
aF1.151236980616729
aF1.8821853830253306
aF1.1417314523020687
aF1.8700880441639063
aF1.086613379166612
aF1.3903790051956713
aF1.9470214341852814
aF1.368410821216608
aF1.0530605512973512
aF1.0877861995642064
aF1.0526631370213773
aF1.8384190881348743
aF1.0319963333763849
aF1.8317991982567086
aF1.441821546554971
aF1.1185187920143753
aF1.216711379103483
aF1.9070146407571715
aF1.2022484713807795
aF1.235905118999237
aF1.4263668017198956
aF1.2457030984086037
aF1.8407668583484011
aF1.563837669995503
aF1.8804921434192117
aF1.580340478328242
aF1.278750611273287
aF1.57821632460286
aF1.105046252105894
aF1.3614268514186842
aF1.0941719809699424
aF1.9563191700681433
aF1.7465299945509505
aF1.8842124604095831
aF1.1898372524160974
aF1.0562745245991902
aF1.813772012564111
aF1.4007264611084476
aF1.3384210203010967
aF1.017416296759437
aF1.359807885146598
aF1.948559524577661
aF1.0562746919784471
aF1.8656295793474484
aF1.6709439329494358
aF1.8267143945984774
aF1.516105304644962
aF1.114814257414502
aF1.736493151834198
aF1.7260311400187316
aa(lp10
cnumpy.core.multiarray
scalar
p11
(cnumpy
dtype
p12
(S'f8'
p13
I0
I1
tp14
Rp15
(I3
S'<'
p16
NNNI-1
I-1
I0
tp17
bS'\x0ba\xb6\x0ba\xb6\xeb?'
p18
tp19
Rp20
aI0
aaF21.688215970993042
aa(g11
(g15
S'Z\xc7\xf6\xc2\x9c\r\xe7?'
p21
tp22
Rp23
I0
tp24
a(g11
(g15
S'xxxxxx\xe8?'
p25
tp26
Rp27
I0
tp28
asI1
(lp29
(lp30
(lp31
I81
aF0.7382053634924157
aF0.6796333237891373
aa(lp32
F1.0
aI0
aaF1499.904461145401
aa(lp33
(lp34
F1.1754613078878116
aF1.6172471858263529
aF1.5366679408771644
aF1.0443193378866025
aF1.0387362502327
aI2
aF1.4297685526026545
aF1.9701495392643118
aI2
aF1.9531207540389883
aF1.5178062199109474
aF1.3003169656216933
aF1.5983094810278713
aI2
aF1.326287624969738
aI1
aI2
aF1.7711534617686464
aF1.8804303124570225
aF1.751487082527177
aF1.8024134646955987
aF1.6696406110734763
aF1.7620357097275798
aF1.3115122931909324
aF1.1324054001081878
aF1.379261813992756
aF1.2762227064572034
aF1.1450133764418107
aI2
aF1.5212165125622252
aF1.5764536147810009
aI1
aF1.5671775699037465
aI1
aF1.2961437018507436
aI2
aF1.1721534411952188
aF1.9223652163997913
aF1.279475166155406
aF1.1780642667886179
aI2
aF1.5266665533435084
aI1
aF1.3546425109205613
aF1.748572876397736
aF1.6829731339933562
aF1.7138058766996456
aI2
aF1.5338829060148744
aI2
aF1.2303190751019681
aI1
aF1.06090008426218
aI2
aF1.4858025935866448
aF1.8167623531158903
aF1.1175819628938939
aF1.4628172032818683
aI1
aF1.518468208324389
aF1.526462461921519
aF1.2893457279520715
aF1.3829947637312772
aI2
aF1.6075362951684053
aF1.1030494026408597
aF1.6954623353269787
aF1.3489437522768433
aF1.1448529003056631
aF1.714052276429985
aF1.4343716932848185
aF1.384973659033116
aI2
aF1.058849728380559
aI1
aI1
aI2
aF1.7356663370140797
aF1.112489478684587
aF1.3624143809244615
aF1.0630728154005824
aa(lp35
g11
(g15
S'J\xf4\x9eI\xf4\x9e\xe9?'
p36
tp37
Rp38
aI0
aaF18.650022983551025
aa(g11
(g15
S'5\xf2\x8f\xb1\xe2Q\xe9?'
p39
tp40
Rp41
I0
tp42
a(g11
(g15
S'\x84\xbe\xa0/\xe8\x0b\xea?'
p43
tp44
Rp45
I0
tp46
asI2
(lp47
(lp48
(lp49
I88
aF0.9599427930859381
aF0.8371724887370376
aa(lp50
F1.0
aI0
aaF1364.0947759151459
aa(lp51
(lp52
F1.517321052172274
aF1.8325280424622705
aF1.283041062947021
aF1.462594904798391
aF1.0609264320744964
aF1.6937413893266635
aF1.231444724165276
aF1.353597434339573
aF1.6980505318684678
aF1.9482569954207762
aF1.1092208393764644
aF1.4083558187978658
aF1.2150072276547985
aF1.2206279102491937
aF1.9845395174533444
aF1.9459347284279356
aF1.3428671077584509
aF1.4869583831191502
aF1.5346540759843916
aF1.1514886193154192
aF1.46181408981354
aF1.8105551124536807
aF1.8796071469790405
aF1.6658251838616955
aF1.4469031482366828
aF1.962787796151456
aF1.3973674991572418
aF1.9306534126968864
aF1.093152203138403
aF1.2607021096967732
aF1.7961251034579504
aF1.973976068231118
aF1.2181918736658304
aF1.1748120288150425
aF1.896908435303379
aF1.546870442756567
aF1.9840710759755658
aF1.7873367878761235
aF1.2013938389205168
aF1.6921833623822313
aF1.3062805302407412
aF1.5327092079701106
aF1.9154297285857058
aF1.223562729957512
aF1.5602745893119931
aF1.61060143713933
aF1.4755217983775848
aF1.5849410968543012
aF1.1175707522883365
aF1.3013022691933642
aF1.6022023041957048
aF1.1790099782532346
aF1.7128798572197093
aF1.1474224165304614
aF1.6233072848308223
aF1.1212905341123915
aF1.0211204271872685
aF1.9988770538271243
aF1.2408059495293982
aF1.3966944402995654
aF1.7922234654784959
aF1.325422583158824
aF1.3262085497592606
aF1.8091623404728832
aF1.0911831613565965
aF1.9815269309906496
aF1.1537730410800693
aF1.9784363622156729
aF1.137380884239585
aF1.8838988156778012
aF1.4684146447760567
aF1.4525632980364969
aF1.5532002291324216
aF1.4013046690791158
aF1.7894465721065174
aF1.1708812959177393
aF1.753159806806868
aF1.7436603817455358
aF1.0725603252009295
aF1.8928743936672792
aF1.061200715615199
aF1.3909211504559373
aF1.370082634588182
aF1.799782015262916
aF1.1888011310203377
aF1.7639839335329577
aF1.6006209925769652
aF1.2083399994687647
aa(lp53
g11
(g15
S'Zk\xad\xb5\xd6Z\xeb?'
p54
tp55
Rp56
aI0
aaF22.650377988815308
aa(g11
(g15
S'\xfc\xd1r\xeb\xc5\xa9\xe4?'
p57
tp58
Rp59
I0
tp60
a(g11
(g15
S'\xae\x830p\xf3\xd2\xe7?'
p61
tp62
Rp63
I0
tp64
asI3
(lp65
(lp66
(lp67
I149
aF0.45030823904198525
aF0.962767151501604
aa(lp68
F1.0
aI0
aaF1479.9545209407806
aa(lp69
(lp70
F1.1094086453689584
aF1.9074947802568805
aF1.5047873834260737
aF1.8361310619049163
aF1.705131503072713
aF1.1650144328436496
aF1.8172737837046347
aF1.6310478073287715
aF1.4647214709370373
aF1.9282286122154249
aF1.525114824261529
aF1.425625695442763
aF1.43383110034489
aF1.4813445155925942
aF1.91343432656593
aF1.6537048883145424
aF1.9630381345481758
aF1.5638703942827925
aF1.5725672002150324
aF1.5248920484066335
aF1.7427053645230526
aF1.1127015097014508
aF1.0620139028497735
aF1.342457262025555
aF1.1201372569596733
aF1.413221426409622
aF1.8163536137203797
aF1.9175381186601896
aF1.89359655134375
aF1.985198905202627
aF1.0597851183349223
aF1.8581329932406572
aF1.5002231139230435
aF1.2209827025717566
aF1.4318932346001378
aF1.7432996468240378
aF1.6400355420450001
aF1.586903234957799
aF1.9335672443297396
aF1.7235900833868807
aF1.618613287083733
aF1.0531148329424367
aF1.360763553046095
aF1.6347225037442359
aF1.9935015848782744
aF1.5391493687389903
aF1.8845713710542982
aF1.9311702262411299
aF1.1886439748963524
aF1.0305593179628487
aF1.000900107434968
aF1.814055516202981
aF1.5622206664587819
aF1.574637430184321
aF1.75369706908134
aF1.8559218190821212
aF1.4013740632345666
aF1.5287626070843872
aF1.3916842070769397
aF1.0708363525307485
aF1.5954306446807327
aF1.1476020598708119
aF1.3406659583673923
aF1.3720074178835164
aF1.3020188091642044
aF1.6146362661874933
aF1.1041125593283057
aF1.7624626295578465
aF1.6882752685335658
aF1.5443841281727995
aF1.2369863802544876
aF1.885492008212499
aF1.086065737090359
aF1.3823579492846303
aF1.7295939564688123
aF1.7304626313822693
aF1.0749793266611227
aF1.9161938897312445
aF1.2474788073461318
aF1.40928491331201
aF1.1236913198211638
aF1.0490062708969423
aF1.8367651473262967
aF1.0611188012604784
aF1.2892437222521878
aF1.104043504865012
aF1.037959317351206
aF1.7145732032587995
aF1.382017884632941
aF1.8034000848649372
aF1.5568017884449379
aF1.9379364546474465
aF1.6533991206422125
aF1.8390973203034147
aF1.7924361665705049
aF1.705850138088879
aF1.1256075716170084
aF1.2157406215249833
aF1.1530602987384255
aF1.3636639843154734
aF1.1883885382755741
aF1.7449896182290479
aF1.1970741377570635
aF1.947281473203383
aF1.2126410596846262
aF1.4928025662868039
aF1.6886085323739697
aF1.6774952151916138
aF1.1362536373811483
aF1.2682884092446916
aF1.5202540098009631
aF1.53337949915596
aF1.4518897165017615
aF1.7165932219929472
aF1.120034440153431
aF1.7715760341697426
aF1.5228461772169926
aF1.054578709179772
aF1.144530648235851
aF1.6706814498339817
aF1.3690780675478509
aF1.6999789291898237
aF1.2917457897155395
aF1.149091837558233
aF1.452385592848115
aF1.772087647835797
aF1.0609141555967192
aF1.257392314317595
aF1.2810948315530593
aF1.1673476526488495
aF1.6632572206520995
aF1.77029346758147
aF1.5899568658870131
aF1.2018264976960993
aF1.8748070553391754
aF1.3496851459658281
aF1.1772770387910318
aF1.041146148989493
aF1.668001639219555
aF1.663772972847263
aF1.6835637429486798
aF1.676026200647589
aF1.5375614487397578
aF1.7465568419943744
aF1.5871979642646958
aF1.498322594836482
aF1.1174986228467934
aF1.980273578264032
aF1.7826322753232813
aa(lp71
g11
(g15
S'\x8fY\xc5\xed\x9c>\xeb?'
p72
tp73
Rp74
aI0
aaF31.52657198905945
aa(g11
(g15
S'\xfd5;j\x11\xf2\xe7?'
p75
tp76
Rp77
I0
tp78
a(g11
(g15
S'\xf0\\ \xe2\x07\xe5\xe8?'
p79
tp80
Rp81
I0
tp82
asI4
(lp83
(lp84
(lp85
I72
aF0.34005282638370027
aF0.9951916409465119
aa(lp86
F1.0
aI0
aaF1451.4925830364227
aa(lp87
(lp88
F1.2987845825552506
aF1.770941111050198
aF1.2258102821718397
aF1.4317536341952508
aF1.9331828233663817
aF1.88322263872606
aF1.5188284226480984
aF1.0681976871807095
aF1.4523991006174313
aF1.9040262173678268
aF1.3608978448557232
aF1.8266292579977113
aF1.751497853720385
aF1.7350896574070513
aF1.6539257634390303
aF1.223020862498812
aF1.5575650932390592
aF1.8419631741838907
aF1.3926027881308176
aF1.3642179761485385
aF1.5665118124458868
aF1.154538450278692
aF1.1256056262313079
aF1.5961416756654838
aF1.1450962295871816
aF1.1116378246664111
aF1.1495505027122148
aF1.7055568251848392
aF1.7318214847360942
aF1.6344869773000017
aF1.4436792928980506
aF1.456836002764717
aF1.3344124914601125
aF1.0515098204660784
aF1.8654409000157366
aF1.2880526740365972
aF1.0427874246636173
aF1.2923025510356057
aF1.4575534158482246
aF1.7090713452075226
aF1.649124084438282
aF1.683182080225733
aF1.506886365669343
aF1.1074194659929293
aF1.1493408749322391
aF1.9975610935474248
aF1.7278181142331912
aF1.147999612521763
aF1.6000175484400831
aF1.6579843397160523
aF1.4511367685192225
aF1.6094854690616445
aF1.3019918900512168
aF1.1641744728512604
aF1.4978101065321163
aF1.4658697776349037
aF1.8460247158049095
aF1.3428618273382176
aF1.0361900291473256
aF1.3692718551022556
aF1.0577933632614642
aF1.1696702258816
aF1.1914670106330183
aF1.284685606738492
aF1.3659461073802381
aF1.116593712317434
aF1.6275227783000243
aF1.7326850511306278
aF1.2917494887559489
aF1.618048142340575
aF1.4906781235909907
aF1.9944469781197367
aa(lp89
g11
(g15
S'\xb7Q\xea}\xf3\xb4\xed?'
p90
tp91
Rp92
aI0
aaF8.284797191619873
aa(g11
(g15
S'\t\xd6\xd1\xe6}\x8a\xeb?'
p93
tp94
Rp95
I0
tp96
a(g11
(g15
S'tsssss\xeb?'
p97
tp98
Rp99
I0
tp100
asa(lp101
g24
ag42
ag60
ag78
ag96
aa(lp102
g28
ag46
ag64
ag82
ag100
aaF7108.378742933273
as.