(dp0
S'photo'
p1
(lp2
(dp3
I0
(lp4
(lp5
(lp6
I146
aF0.7690319446203151
aF0.7441672436940188
aa(lp7
F1.0
aI0
aaF2589.47167801857
aa(lp8
(lp9
F1.0252143008920074
aF1.4025562396569915
aF1.365499747048288
aF1.0361056126796275
aF1.9005427839272326
aF1.0745406190545217
aF1.4111490586047504
aF1.543618736366716
aF1.2295818810009513
aF1.2271551578456212
aF1.2661821965508977
aF1.3095126434991935
aF1.8251454558136149
aF1.7819331698179677
aF1.1842998178131126
aF1.5534791000131638
aF1.7503016905786537
aF1.1665885187844176
aF1.8865778618914781
aF1.3471559173175272
aF1.1640725633340692
aF1.1438800917936316
aF1.2045183983058418
aF1.883945179448966
aF1.1978012973851409
aF1.0059262825607074
aF1.863039585254028
aF1.7718583481838135
aF1.0288103777635196
aF1.5476794546276982
aF1.0654263198771352
aF1.1241516658892237
aF1.1208758600584225
aF1.5300456921530832
aF1.9607206273610402
aF1.9324825929669713
aF1.5574465739035026
aF1.0087158924686719
aF1.1641352226324082
aF1.6164004887143104
aF1.720642968321759
aF1.5314040672800504
aF1.125672395694883
aF1.622652559166306
aF1.0633311175377995
aF1.32791868615517
aF1.0180605452271048
aF1.9697658879886633
aF1.5111947631204896
aF1.4226912471109867
aF1.3336334960621858
aF1.7498818297631296
aF1.8041673463936294
aF1.8672842614134826
aF1.747883243819753
aF1.7105734257893577
aF1.8220569943717029
aF1.0508737107906747
aF1.5335796421160974
aF1.6374905813049563
aF1.7146253633250523
aF1.6330897383386356
aF1.8756264065582515
aF1.5485559724151998
aF1.8418283120120953
aF1.5380294728440824
aF1.5461761017046451
aF1.0279886387467476
aF1.0035263370264236
aF1.6308033404461293
aF1.8373157946160035
aF1.1984082209901534
aF1.0730489571341755
aF1.7966581669015407
aF1.4194602038669912
aF1.2222144829209896
aF1.8172931776560861
aF1.4963832054579025
aF1.9946789678764691
aF1.3281058722640655
aF1.7155029283297911
aF1.5417116640884587
aF1.9261211700819447
aF1.1859524097455934
aF1.5062576517751354
aF1.667703714736903
aF1.589926826834475
aF1.1804078432577214
aF1.5460652687414482
aF1.475502609774815
aF1.5323115819022397
aF1.6045818887931367
aF1.1223319434604475
aF1.4862319646380653
aF1.2817305687881082
aF1.1777730345459134
aF1.0543079453708706
aF1.3379668603033907
aF1.8610965166987334
aF1.6059410059703456
aF1.5523680147608032
aF1.4291122026821055
aF1.844901476959509
aF1.186453999904034
aF1.1227635973434746
aF1.079996945644401
aF1.108501610051627
aF1.5086933452041578
aF1.0858074592553435
aF1.5038312841055292
aF1.9946756787452369
aF1.8787081615289445
aF1.0541711196252375
aF1.3250954444550849
aF1.4825827650841705
aF1.0676351470434278
aF1.6783561314939828
aF1.1562702474464925
aF1.6988259132983816
aF1.4562129422615353
aF1.846915641760028
aF1.756601350236748
aF1.2176262958919248
aF1.4291520232390151
aF1.7752905626844262
aF1.0241390251830496
aF1.9336124102068
aF1.0912751320169196
aF1.8078964683020287
aF1.3654770985658997
aF1.1786161421199415
aF1.6552380955663537
aF1.3115180118836114
aF1.161224517676521
aF1.047301750974975
aF1.9026036693567658
aF1.2769005821740713
aF1.4220093643033536
aF1.3113759960526776
aF1.111764545204588
aF1.2950814240502984
aF1.3239605156259588
aF1.2382957171976385
aF1.6760593104040833
aF1.120943691271426
aF1.5948675846737443
aa(lp10
cnumpy.core.multiarray
scalar
p11
(cnumpy
dtype
p12
(S'f8'
p13
I0
I1
tp14
Rp15
(I3
S'<'
p16
NNNI-1
I-1
I0
tp17
bS'%\xfa\xc4\xcb\xd2L\xd8?'
p18
tp19
Rp20
aI0
aaF238.96834206581116
aa(g11
(g15
S'\x12\x12\x12\x12\x12\x12\xd2?'
p21
tp22
Rp23
I0
tp24
a(g11
(g15
S'/\xa9|\x18\xf7\xeb\xd2?'
p25
tp26
Rp27
I0
tp28
asI1
(lp29
(lp30
(lp31
I150
aF0.6198815400411137
aF0.1341219731650181
aa(lp32
F0.75
aI0
aaF2497.0641989707947
aa(lp33
(lp34
F1.5559364722820246
aF1.6435587321586487
aF1.951192579818998
aF1.7095990689705722
aF1.4405126359517415
aF1.887892084766992
aF1.3576509317825953
aF1.6570404193676858
aF1.2934963428934685
aF1.486346286125904
aF1.6539110773360224
aF1.6117713768435973
aF1.8127209979189811
aF1.6593762040209934
aF1.6364969995400118
aF1.0390529360609795
aF1.6059717876721527
aF1.54876205822438
aF1.6748574236266593
aF1.451832265516065
aF1.3647612694689826
aF1.530025197261479
aF1.45017726819539
aF1.564571178925323
aF1.1687582961519998
aF1.8288350721133162
aF1.5132631569769623
aF1.8580271155769332
aF1.394044774348464
aF1.6888652115552238
aF1.6578191196236158
aF1.8942702221115604
aF1.867918430332022
aF1.0679892625562135
aF1.0786327508174494
aF1.8258813973167785
aF1.294365415845006
aF1.9003875832562196
aF1.0549231675503865
aF1.5804575161427667
aF1.6971508495998344
aF1.074434914320674
aF1.287416794090023
aF1.878742870676307
aF1.9740952503115314
aF1.7992875568376867
aF1.9920998240075587
aF1.0516904722957716
aF1.3108234608757028
aF1.772590635252552
aF1.3805592820445782
aF1.9277549679409944
aF1.1041792017415268
aF1.3317277325592638
aF1.4925757190942037
aF1.5254562962966618
aF1.446190592659732
aF1.8409548766138228
aF1.0639907046736465
aF1.8256078665484257
aF1.983916393476707
aF1.401784374462569
aF1.975510922141407
aF1.7453169862765099
aF1.201327025549822
aF1.5772203419583477
aF1.1869801902511263
aF1.2947318364245004
aF1.6468433243539202
aF1.9541907720267002
aF1.2702569662762422
aF1.441306208920932
aF1.4522711472968126
aF1.8751708693270852
aF1.8522816904433856
aF1.0340607855126378
aF1.440013375457473
aF1.0388102253884197
aF1.0066475939712625
aF1.9593873180245078
aF1.6896946436803915
aF1.7478591109023065
aF1.3222670462356132
aF1.7184066569977854
aF1.70961604906428
aF1.2538718982233616
aF1.954751563372099
aF1.8775606299847063
aF1.4606944702126106
aF1.5897664703557637
aF1.3172815024765412
aF1.9574664014084115
aF1.453549185119071
aF1.1964499908544421
aF1.040176926883313
aF1.9615096121796318
aF1.0121130438403583
aF1.711130867219592
aF1.0539955652357151
aF1.4879690041768319
aF1.490628016446875
aF1.8070538443900537
aF1.3353045029889834
aF1.8580223454937785
aF1.8073619937323566
aF1.7229179958376504
aF1.94962764127441
aF1.8430076454892623
aF1.3834822882202726
aF1.316589356471098
aF1.3401679903713863
aF1.3785897681488577
aF1.5815453709229144
aF1.761597046765242
aF1.5838610810837257
aF1.6403470299975655
aF1.512449428400646
aF1.6561152243706565
aF1.8480837121533824
aF1.5729361711082752
aF1.598217190212722
aF1.0425425696940949
aF1.9519600440287412
aF1.1176217479570547
aF1.4498504750687196
aF1.2154917672789556
aF1.9766911353100465
aF1.1842556173885128
aF1.9124467748073228
aF1.7268792813418719
aF1.876161455926417
aF1.7891166616589496
aF1.8693586546874157
aF1.1013067955400877
aF1.9097697017418407
aF1.989338733197339
aF1.2057020098509266
aF1.56130063313785
aF1.5605308706430745
aF1.3638369394614192
aF1.8513364576519666
aF1.2783673022253472
aF1.287534312893578
aF1.4917673481864167
aF1.696395583386231
aF1.5179837929332105
aF1.1268959940498382
aF1.0899441073509517
aF1.9954056250772743
aF1.4678975780202372
aa(lp35
g11
(g15
S'V4;6\xf3\xe5\xdd?'
p36
tp37
Rp38
aI0
aaF273.4652419090271
aa(g11
(g15
S'\xf7\x19\xb9)J\x16\xd1?'
p39
tp40
Rp41
I0
tp42
a(g11
(g15
S'\xd9\x89\x9d\xd8\x89\x9d\xd8?'
p43
tp44
Rp45
I0
tp46
asI2
(lp47
(lp48
(lp49
I144
aF0.6842650074282289
aF0.9019339575053571
aa(lp50
F1.0
aI0
aaF2458.731769800186
aa(lp51
(lp52
F1.3817854157523233
aF1.9426852645164074
aF1.7382107006728487
aF1.4699453776135516
aF1.465162597802638
aF1.9191047939794084
aF1.0690407576201093
aF1.7775369826313687
aF1.054650652329142
aF1.3688390029160742
aF1.5891544045983164
aF1.80765951658902
aF1.1576451927370623
aF1.0654305438835039
aF1.694010454776982
aF1.4529423837531843
aF1.342097278035556
aF1.131857771343463
aF1.0684725813153797
aF1.3820201369356662
aF1.358586563159064
aF1.8684154159795172
aF1.518065267757133
aF1.7226551565209745
aF1.1947963912271051
aF1.7885412111487329
aF1.3049525829044837
aF1.3476185259807427
aF1.0852304884769366
aF1.625477351023616
aF1.125556945330508
aF1.6470700666193927
aF1.191509631965928
aF1.6816481088618043
aF1.0471702493509867
aF1.4859535457140889
aF1.3150655556505106
aF1.8285018254078849
aF1.4773207598512936
aF1.970115789557382
aF1.8232080548560945
aF1.731943894538908
aF1.7754185708853472
aF1.3089604660258412
aF1.8355839217364878
aF1.7105225953934124
aF1.9987560092494077
aF1.7385953075696259
aF1.2587089038755797
aF1.9230407892787724
aF1.9980654581338908
aF1.281150683415626
aF1.3822753082281287
aF1.3573602352778111
aF1.009516542223432
aF1.615784825149435
aF1.2055055893181437
aF1.20246989436668
aF1.5359904230032173
aF1.1876861894336503
aF1.2991287813357197
aF1.7458174088515692
aF1.9342728986558395
aF1.6539937656167527
aF1.1721033866645465
aF1.956089626979204
aF1.036315724210954
aF1.6319076381127395
aF1.918376220762335
aF1.4996684183944435
aF1.0349666112736504
aF1.9896250151328112
aF1.9692438261297363
aF1.8190026755965953
aF1.0376206285760134
aF1.1325698770507238
aF1.9731230173592174
aF1.440839014986983
aF1.5933110464669509
aF1.0533085883536486
aF1.5152069479293395
aF1.0146638648471336
aF1.0350581098256775
aF1.702436294687549
aF1.313510252538634
aF1.3074757755698156
aF1.0005928191974571
aF1.7045248973104925
aF1.8282677426769522
aF1.048339789089824
aF1.2800080050988445
aF1.1300420306357997
aF1.6263224005584203
aF1.110020072378589
aF1.606089488428676
aF1.2237389826774996
aF1.3234240796166121
aF1.6990166571366299
aF1.7379104236139085
aF1.5312048001433263
aF1.7071262461602101
aF1.329249498632369
aF1.7568468819651728
aF1.3116547170028978
aF1.7044200245427303
aF1.097720162453351
aF1.946525993294113
aF1.0770557608208235
aF1.1573023208951896
aF1.4373840838943772
aF1.5143400591045681
aF1.7390509750680487
aF1.821688703053919
aF1.0185379980227207
aF1.7969154675111927
aF1.994028932791374
aF1.7644231019267969
aF1.9191825987115334
aF1.212882858766458
aF1.1012675622329644
aF1.1086645698932007
aF1.2247684492619033
aF1.1171724810696129
aF1.7368571712287557
aF1.3938705025564042
aF1.7526175832798079
aF1.5245106757702231
aF1.4787727817436305
aF1.8046356014398033
aF1.5223456895125476
aF1.8505639886638812
aF1.444971954337606
aF1.8538128134754148
aF1.2007107196701654
aF1.052169262246852
aF1.32905970938498
aF1.705985623009446
aF1.7115901615369302
aF1.509297025045759
aF1.500925386155116
aF1.3523549576368108
aF1.0359570378246832
aF1.9385774183230597
aF1.956905338028681
aa(lp53
g11
(g15
S'\x85"\x14\xa1\x08E\xd8?'
p54
tp55
Rp56
aI0
aaF223.3785469532013
aa(g11
(g15
S'\x04\xd2\xc3x\xc7\xf9\xd5?'
p57
tp58
Rp59
I0
tp60
a(g11
(g15
S'\x02q\xa1\xe6$\x10\xd7?'
p61
tp62
Rp63
I0
tp64
asI3
(lp65
(lp66
(lp67
F129.7
aI1
aI1
aa(lp68
F1.0
aI0
aaF2283.3358511924744
aa(lp69
(lp70
F1.7433885086243386
aF1.2563683233391947
aF1.0882356363802748
aF1.193082326984967
aF1.4634493419250805
aF1.394673126132004
aF1.2412646824504536
aF1.9461053546000548
aF1.2584289958898318
aF1.1139447010172292
aF1.3478367349183489
aF1.0148945391889623
aF1.240653686733503
aF1.4389270437645139
aF1.9912292842216162
aF1.791459923168393
aF1.9395285767115236
aF1.3641607013963637
aF1.394925277439531
aF1.0381217749383163
aF1.877512213762189
aF1.2669260251326202
aF1.4158257282927211
aF1.3259638180069362
aF1.432683027251195
aF1.0276307714986914
aF1.6924834079977702
aF1.2517256696122732
aF1.9615919261268104
aF1.3417482564136811
aF1.1358025701627352
aF1.276788923790543
aF1.9525391401592562
aF1.1109282973414891
aF1.0835943894392697
aF1.1170839761704745
aF1.801592760099221
aF1.0533564284378576
aF1.1499402972828199
aF1.7643400379918486
aF1.0507555331958343
aF1.2856296817414332
aF1.2675183562645351
aF1.5527658568541818
aF1.04680060283633
aF1.2986443923583488
aF1.4408452380973555
aF1.1103155243550336
aF1.7481291465454918
aF1.327220898806348
aF1.5007411852831591
aF1.2401071463997058
aF1.0658660868537817
aF1.7544746554592008
aF1.3510115300259082
aF1.9850150222676688
aF1.2440466595716868
aF1.5663951882343436
aF1.8729693194387478
aF1.0977374252180425
aF1.623609322509005
aF1.7301652398187928
aF1.4955456211120624
aF1.651448258680193
aF1.5369499740526054
aF1.726794462339957
aF1.7887381725450424
aF1.6365513310177315
aF1.1554055229849207
aF1.3691704528772766
aF1.713714469598976
aF1.2061096623166292
aF1.4719591309150575
aF1.8391991538381656
aF1.1674663032080617
aF1.5796218796867416
aF1.0760802667137799
aF1.8105372660264667
aF1.479284118687302
aF1.2206274194337217
aF1.640777565393823
aF1.6611909341112037
aF1.2834309976771356
aF1.5868925384454133
aF1.78490173393869
aF1.6206488079349777
aF1.0230468343098613
aF1.2986770111083696
aF1.7540090815566458
aF1.4799716721098144
aF1.6051496513536352
aF1.3179233223764795
aF1.8207292883316697
aF1.9319387841011597
aF1.7143186979440759
aF1.5580035406343629
aF1.5917955769612246
aF1.0565832738375733
aF1.8338681618806143
aF1.3431590850284025
aF1.490746783259504
aF1.4761924090140202
aF1.4189667695142472
aF1.0955893431586965
aF1.0795482403524037
aF1.331572796850078
aF1.6963097737398711
aF1.1773552072376932
aF1.833094444009285
aF1.316455098473263
aF1.206697806697965
aF1.2282276752601915
aF1.2324706838217159
aF1.6755101465836524
aF1.4341132438156725
aF1.524431584196614
aF1.8444673077099623
aF1.1335101220624462
aF1.9898383766586356
aF1.0279274980441642
aF1.3689538885832933
aF1.6927141924308104
aF1.48334784579701
aF1.7833391478903557
aF1.0450696208997416
aF1.1305431630917724
aF1.3941134164851412
aF1.008270838005225
aF1.0003549699824106
aa(lp71
g11
(g15
S'\xed\xcfh\xbd\xd7\xee\xd6?'
p72
tp73
Rp74
aI0
aaF221.30049109458923
aa(g11
(g15
S'\xd27\x9cg\xa1\xad\xd2?'
p75
tp76
Rp77
I0
tp78
a(g11
(g15
S'\xd2\x86PK_\xbd\xd4?'
p79
tp80
Rp81
I0
tp82
asI4
(lp83
(lp84
(lp85
I121
aF0.5848073993983804
aF0.5172615800300447
aa(lp86
F0.75
aI0
aaF2401.066430091858
aa(lp87
(lp88
F1.6548212000416158
aF1.5624420646117896
aF1.2096488082818637
aF1.4875878950499763
aF1.702383093621994
aI2
aF1.5178665240231568
aF1.2802452152988224
aF1.9266205742718605
aF1.758742597176648
aI2
aI1
aF1.989241070424572
aF1.1086379618791615
aF1.5710808258993167
aI2
aF1.2943687403133792
aF1.2422387129443686
aF1.5739219449741164
aI2
aF1.1716136102053794
aF1.1775612441747347
aF1.4327975056670708
aF1.9642155322591783
aF1.5659555063004316
aF1.6858225300830614
aF1.6860710396323684
aF1.3362913082582901
aF1.7041982360288328
aI1
aI1
aF1.276670072553494
aF1.241152619082173
aI2
aF1.3850282788910246
aF1.6893192751148025
aF1.3498924302892175
aF1.389184812995236
aI1
aF1.1068206543011514
aI2
aF1.166414054686392
aF1.303657569131197
aF1.3135749386306164
aF1.5130316327400326
aF1.5463357327014122
aF1.574614628667811
aI1
aI2
aF1.202740751243219
aI2
aI1
aI1
aI1
aF1.2691017137958156
aI2
aF1.8947726471172222
aI2
aI2
aF1.2971103754975783
aF1.8506969444068566
aF1.9440711392062504
aF1.179769181465422
aF1.7605764826458312
aF1.9845020633152926
aF1.2333502579611948
aF1.604445215369946
aF1.0124149332115753
aF1.178458302834546
aI1
aF1.0677006278885937
aF1.1948426181886902
aI1
aF1.0001996116678922
aF1.3312537936951192
aF1.079187200726659
aF1.5430316600538259
aF1.5318429232678734
aI1
aF1.416967556294394
aF1.7406599924947512
aF1.0659479623689334
aF1.8673113013827989
aF1.6952488030709398
aI2
aF1.4735007214584543
aF1.3526989685096829
aF1.899330489603615
aF1.566870229142798
aF1.3243744428091542
aF1.5549619030247024
aF1.0108210304372998
aF1.4086452442652457
aF1.204383816295233
aF1.4518304042886045
aF1.2441194003992408
aF1.5789930254790496
aF1.5849714679444542
aF1.14771064432876
aI1
aF1.4152313328744632
aI2
aF1.9068782066353525
aF1.314548881033759
aF1.1377461318277184
aF1.2570920231697231
aI2
aI2
aF1.9953109751546572
aF1.8852426397529758
aI1
aF1.0431853287959796
aF1.5808894258265807
aF1.8535359147813388
aI2
aF1.468029429400785
aF1.8889169511035369
aF1.6675107022458575
aI2
aF1.6019889802424574
aF1.5276536590187615
aa(lp89
g11
(g15
S'\xd2\xb6\xd8\xa4\xa6+\xde?'
p90
tp91
Rp92
aI0
aaF183.52679014205933
aa(g11
(g15
S'Ya<\xc4\xbdh\xd4?'
p93
tp94
Rp95
I0
tp96
a(g11
(g15
S'\x07\x8f\xba\x14t\xf0\xd8?'
p97
tp98
Rp99
I0
tp100
asa(lp101
g24
ag42
ag60
ag78
ag96
aa(lp102
g28
ag46
ag64
ag82
ag100
aaF13370.570915937424
as.