(lp0
(dp1
S'rpg'
p2
(dp3
I7
(lp4
F0.7777777777777778
acnumpy.core.multiarray
scalar
p5
(cnumpy
dtype
p6
(S'f8'
p7
I0
I1
tp8
Rp9
(I3
S'<'
p10
NNNI-1
I-1
I0
tp11
bS'C\x159\x84f`\xdb?'
p12
tp13
Rp14
assa(dp15
g2
(dp16
I7
(lp17
(lp18
(lp19
I56
aF0.8626903632435095
aF0.7873971570789526
aaF0.6666666666666666
ag5
(g9
S'\x8b\xdc\xdfZ"\xf7\xc7?'
p20
tp21
Rp22
aa(lp23
(lp24
I63
aF0.5458915783827468
aF0.5045419583098644
aaF0.5555555555555556
ag5
(g9
S'2o\xc1\xdc\x18\x9d\xc9?'
p25
tp26
Rp27
aa(lp28
(lp29
I83
aF0.8098510160219619
aF0.1844736280968114
aaF0.4444444444444444
ag5
(g9
S'\xb4\x0b\xa6\xdb\t \xe0?'
p30
tp31
Rp32
aa(lp33
(lp34
I51
aF0.8521885935278827
aF0.489490361114548
aaF0.4444444444444444
ag5
(g9
S'C\xb6q\x00=d\xcb?'
p35
tp36
Rp37
aa(lp38
(lp39
I88
aF0.10189544801599963
aF0.5008484746493213
aaF0.5555555555555556
ag5
(g9
S'\xd9~G\xaf\x8c\xed\xcb?'
p40
tp41
Rp42
aa(lp43
(lp44
I86
aF0.3058859991434074
aF0.95074362599853
aaF0.7777777777777778
ag14
aa(lp45
(lp46
I95
aF0.1275309847301982
aF0.12290127489411473
aaF0.5555555555555556
ag5
(g9
S'=S\xb9\xeex\xb1\xcd?'
p47
tp48
Rp49
aa(lp50
(lp51
I77
aF0.9452342465006595
aF0.4430838139193912
aaF0.4444444444444444
ag5
(g9
S'\xe3\xa1s\t\x99\xff\xc1?'
p52
tp53
Rp54
aa(lp55
(lp56
I61
aF0.47990491802444557
aF0.12613670881738115
aaF0.4444444444444444
ag5
(g9
S"\x18\x0b'\xa8E\xa3\xe0?"
p57
tp58
Rp59
aa(lp60
(lp61
I61
aF0.4940988342855148
aF0.5462310172436656
aaF0.5555555555555556
ag5
(g9
S':\nrZ\x8e\x82\xcc?'
p62
tp63
Rp64
aa(lp65
g19
aF0.5555555555555556
ag5
(g9
S'\x08\xbct\x04\xd7B\xc9?'
p66
tp67
Rp68
aa(lp69
g24
aF0.5555555555555556
ag5
(g9
S'B\xa8lW\xcf\xf2\xcb?'
p70
tp71
Rp72
aa(lp73
g29
aF0.4444444444444444
ag5
(g9
S'\x12W$j."\xce?'
p74
tp75
Rp76
aa(lp77
g34
aF0.4444444444444444
ag5
(g9
S'\xe0e(<Q\x01\xcb?'
p78
tp79
Rp80
aa(lp81
(lp82
I50
aI1
aI1
aaF0.6666666666666666
ag5
(g9
S'\x80\x8d\xd1v\x9a\x15\xcc?'
p83
tp84
Rp85
aa(lp86
g44
aF0.4444444444444444
ag5
(g9
S'&\n\x88\xaa\x12\xf0\xc5?'
p87
tp88
Rp89
aa(lp90
g46
aF0.5555555555555556
ag5
(g9
S'\xd8\x9e \x02u#\xce?'
p91
tp92
Rp93
aa(lp94
g51
aF0.4444444444444444
ag5
(g9
S'Ug\xf3k\xe5(\xc2?'
p95
tp96
Rp97
aa(lp98
g56
aF0.5555555555555556
ag5
(g9
S'\xaa\x06\x03\x8d\x11e\xcf?'
p99
tp100
Rp101
aa(lp102
g61
aF0.5555555555555556
ag5
(g9
S'\x178\xc8\xb1a\xe7\xc9?'
p103
tp104
Rp105
aa(lp106
(lp107
F69.4
aF0.27969092368391973
aF0.5567671352803871
aaF0.6666666666666666
ag5
(g9
S'=\x02\xcb\x90\xf2=\xcb?'
p108
tp109
Rp110
aa(lp111
g24
aF0.5555555555555556
ag5
(g9
S'\xfcu1\xf4\xf3\x1e\xcc?'
p112
tp113
Rp114
aa(lp115
g29
aF0.4444444444444444
ag5
(g9
S'\xa4\xaa\xf1\xee8m\xcc?'
p116
tp117
Rp118
aa(lp119
g34
aF0.4444444444444444
ag5
(g9
S'T\xe1+,\x9d\xe1\xcc?'
p120
tp121
Rp122
aa(lp123
(lp124
F97.7
aF0.8676317343019668
aF0.1
aaF0.4444444444444444
ag5
(g9
S'\xb66\x96\xb7@I\xcb?'
p125
tp126
Rp127
aa(lp128
g44
aF0.6666666666666666
ag5
(g9
S"Hh\xc1\x92'\xda\xc6?"
p129
tp130
Rp131
aa(lp132
g46
aF0.5555555555555556
ag5
(g9
S'\xb5\x02\x9dc\x0fj\xce?'
p133
tp134
Rp135
aa(lp136
(lp137
I50
aI1
aF0.952372674897648
aaF0.6666666666666666
ag5
(g9
S'u\x1d}\xacX\x14\xc7?'
p138
tp139
Rp140
aa(lp141
g56
aF0.5555555555555556
ag5
(g9
S'U\x1d\xe3\xaa\xf1\xf8\xcf?'
p142
tp143
Rp144
aa(lp145
(lp146
I100
aF0.1
aF0.43524244227618064
aaF0.5555555555555556
ag5
(g9
S'\xe4\xce;\xb9\x87\x94\xc9?'
p147
tp148
Rp149
aa(lp150
g107
aF0.6666666666666666
ag5
(g9
S'\xfa\xd0\x92\x1d\x92\x9f\xdf?'
p151
tp152
Rp153
aa(lp154
(lp155
I100
aF0.1
aF0.13027655751981979
aaF0.5555555555555556
ag5
(g9
S'\x86\x8f\x08F\xcd\xf6\xce?'
p156
tp157
Rp158
aa(lp159
g29
aF0.4444444444444444
ag5
(g9
S'\xc9\xf5\x0c%\xa3\x0e\xe0?'
p160
tp161
Rp162
aa(lp163
g34
aF0.4444444444444444
ag5
(g9
S'(\xc1\xe0\xd7\xa0K\xcb?'
p164
tp165
Rp166
aa(lp167
(lp168
F55.88
aF0.8598502039616319
aI1
aaF0.5555555555555556
ag5
(g9
S'\xde[\x10\xab/X\xc6?'
p169
tp170
Rp171
aa(lp172
g44
aF0.5555555555555556
ag5
(g9
S'\x00\xce\x8b\x82v\x00\xc7?'
p173
tp174
Rp175
aa(lp176
(lp177
I50
aF0.6288879353633705
aI1
aaF0.6666666666666666
ag5
(g9
S'\xe3\xf7\x10\x0b\xa3\xd9\xcb?'
p178
tp179
Rp180
aa(lp181
(lp182
I50
aI1
aF0.7067666888198544
aaF0.5555555555555556
ag5
(g9
S'3\x0fp\xfavM\xcb?'
p183
tp184
Rp185
aa(lp186
g56
aF0.4444444444444444
ag5
(g9
S'AeR.\xdeD\xd0?'
p187
tp188
Rp189
aa(lp190
g61
aF0.6666666666666666
ag5
(g9
S'K\xf0m\xfe\n\xb3\xca?'
p191
tp192
Rp193
aassa(dp194
g2
(dp195
I7
(lp196
g44
ag4
assa(dp197
g2
F60364.216285943985
sa.