(lp0
(dp1
S'cs'
p2
(dp3
I7
(lp4
F0.6666666666666666
acnumpy.core.multiarray
scalar
p5
(cnumpy
dtype
p6
(S'f8'
p7
I0
I1
tp8
Rp9
(I3
S'<'
p10
NNNI-1
I-1
I0
tp11
bS'+\xf8\x07a\xa6\x16\xe2?'
p12
tp13
Rp14
assa(dp15
g2
(dp16
I7
(lp17
(lp18
(lp19
I56
aF0.8626903632435095
aF0.7873971570789526
aaF0.5555555555555556
ag5
(g9
S'\xb9`t\xa6\x8dT\xd2?'
p20
tp21
Rp22
aa(lp23
(lp24
I63
aF0.5458915783827468
aF0.5045419583098644
aaF0.5555555555555556
ag5
(g9
S'\xc2eC\x96p\xd9\xd0?'
p25
tp26
Rp27
aa(lp28
(lp29
I83
aF0.8098510160219619
aF0.1844736280968114
aaF0.4444444444444444
ag5
(g9
S'\x00\xff\xfd\xfb\xf7\xef\xdf?'
p30
tp31
Rp32
aa(lp33
(lp34
I51
aF0.8521885935278827
aF0.489490361114548
aaF0.5555555555555556
ag5
(g9
S'\xbe~\xb9\x93P\xa0\xd1?'
p35
tp36
Rp37
aa(lp38
(lp39
I88
aF0.10189544801599963
aF0.5008484746493213
aaF0.5555555555555556
ag5
(g9
S'i.\xa3\xb9\x8c\xe6\xd2?'
p40
tp41
Rp42
aa(lp43
(lp44
I86
aF0.3058859991434074
aF0.95074362599853
aaF0.5555555555555556
ag5
(g9
S'w\xc8=7\x04C\xd3?'
p45
tp46
Rp47
aa(lp48
(lp49
I95
aF0.1275309847301982
aF0.12290127489411473
aaF0.5555555555555556
ag5
(g9
S'\x7f\n\x82\xe7%9\xd2?'
p50
tp51
Rp52
aa(lp53
(lp54
I77
aF0.9452342465006595
aF0.4430838139193912
aaF0.4444444444444444
ag5
(g9
S'30\xeeN\xb6n\xcf?'
p55
tp56
Rp57
aa(lp58
(lp59
I61
aF0.47990491802444557
aF0.12613670881738115
aaF0.5555555555555556
ag5
(g9
S'\t\xa6\xd4\xad{\xf9\xe1?'
p60
tp61
Rp62
aa(lp63
(lp64
I61
aF0.4940988342855148
aF0.5462310172436656
aaF0.5555555555555556
ag5
(g9
S'h/\xa1\xbd\x84\xf6\xd1?'
p65
tp66
Rp67
aa(lp68
g19
aF0.4444444444444444
ag5
(g9
S'{\x901x\x03\xe2\xd0?'
p69
tp70
Rp71
aa(lp72
(lp73
F85.4
aF0.46761022459642493
aF0.39998316667750355
aaF0.5555555555555556
ag5
(g9
S'\xbf\\\x9a\xdf\xe0\xaa\xe1?'
p74
tp75
Rp76
aa(lp77
(lp78
F68.6
aI1
aF0.4861844611612789
aaF0.5555555555555556
ag5
(g9
S'\x03\x07\x0e\x1c8p\xe0?'
p79
tp80
Rp81
aa(lp82
(lp83
I50
aF0.7365024127131672
aF0.42246752846206675
aaF0.6666666666666666
ag14
aa(lp84
(lp85
F55.2
aF0.7574203321927944
aF0.3084632310387422
aaF0.5555555555555556
ag5
(g9
S'(\xdb\x1d\x8bgO\xd1?'
p86
tp87
Rp88
aa(lp89
(lp90
F55.9
aF0.6304294441253488
aF0.2914917219761862
aaF0.5555555555555556
ag5
(g9
S'\x8f\xbd\xda\x88&\x10\xe2?'
p91
tp92
Rp93
aa(lp94
g49
aF0.4444444444444444
ag5
(g9
S'\xe6\xd9\x1au\x8b\xa0\xd2?'
p95
tp96
Rp97
aa(lp98
g54
aF0.4444444444444444
ag5
(g9
S'x\xb5\xb8\t\xf3\xbb\xd2?'
p99
tp100
Rp101
aa(lp102
(lp103
I50
aF0.6674169871804322
aF0.7135381922636851
aaF0.5555555555555556
ag5
(g9
S'\xcc \xeb\x98A\xd6\xe1?'
p104
tp105
Rp106
aa(lp107
(lp108
I50
aI1
aF0.7476786977885703
aaF0.5555555555555556
ag5
(g9
S'\x99\x99\x99\x99\x99\x99\xe1?'
p109
tp110
Rp111
aa(lp112
g19
aF0.5555555555555556
ag5
(g9
S'\x82\xab\x8e\xc3\xdf\xff\xe0?'
p113
tp114
Rp115
aa(lp116
(lp117
F63.580000000000005
aF0.3713268136111998
aF0.7579435072302
aaF0.5555555555555556
ag5
(g9
S'\xb7`\x0b\xb6`\x0b\xe2?'
p118
tp119
Rp120
aa(lp121
g78
aF0.4444444444444444
ag5
(g9
S'\xfd\xde\x10\xfd\xd3k\xd1?'
p122
tp123
Rp124
aa(lp125
(lp126
F83.72
aF0.7071787785943008
aF0.24912648967101905
aaF0.4444444444444444
ag5
(g9
S'\xdb\xe0\xba\x9eGR\xd2?'
p127
tp128
Rp129
aa(lp130
g39
aF0.5555555555555556
ag5
(g9
S'V\xb7,\xf8z*\xe2?'
p131
tp132
Rp133
aa(lp134
g90
aF0.5555555555555556
ag5
(g9
S'\xca\xdc\xd5}\x14O\xe2?'
p135
tp136
Rp137
aa(lp138
g49
aF0.4444444444444444
ag5
(g9
S'\xe14\xfb\x9f\xa4)\xd2?'
p139
tp140
Rp141
aa(lp142
(lp143
F66.88000000000001
aF0.4415688905749072
aF0.1
aaF0.4444444444444444
ag5
(g9
S'\xb8!\xb4\xea/\x94\xe2?'
p144
tp145
Rp146
aa(lp147
(lp148
F55.88
aF0.6656631846670358
aF0.717508244719249
aaF0.5555555555555556
ag5
(g9
S'\x87a\x7f\xfa\x07\x0e\xd2?'
p149
tp150
Rp151
aa(lp152
g108
aF0.4444444444444444
ag5
(g9
S'z\xf8\xc9\x1a\xb6N\xe1?'
p153
tp154
Rp155
aa(lp156
(lp157
I100
aF0.1
aF0.1
aaF0.5555555555555556
ag5
(g9
S'\xc0\xf6\x90\xcb\x8a\x81\xd2?'
p158
tp159
Rp160
aa(lp161
g117
aF0.4444444444444444
ag5
(g9
S"\xb8\xa3+[x'\xe2?"
p162
tp163
Rp164
aa(lp165
g78
aF0.4444444444444444
ag5
(g9
S'\xe7\x10\x89\xc2\xc7\xf6\xcd?'
p166
tp167
Rp168
aa(lp169
g83
aF0.5555555555555556
ag5
(g9
S'`\x83\xbb\xcadN\xe2?'
p170
tp171
Rp172
aa(lp173
g39
aF0.4444444444444444
ag5
(g9
S'\x17\xd2\xd1G3\xf6\xd2?'
p174
tp175
Rp176
aa(lp177
g90
aF0.5555555555555556
ag5
(g9
S'\xc9\xda*\xde\xc9\x0f\xe2?'
p178
tp179
Rp180
aa(lp181
g49
aF0.4444444444444444
ag5
(g9
S'{\x87`>\xc9\x85\xd2?'
p182
tp183
Rp184
aa(lp185
g143
aF0.5555555555555556
ag5
(g9
S'\x92$I\x92$\t\xd2?'
p186
tp187
Rp188
aa(lp189
g59
aF0.5555555555555556
ag5
(g9
S'\x1c\xcd\xf7\x1d\xa4\x8d\xd2?'
p190
tp191
Rp192
aa(lp193
g108
aF0.4444444444444444
ag5
(g9
S'\x9a\xf3z\n\xda\x92\xd1?'
p194
tp195
Rp196
aassa(dp197
g2
(dp198
I7
(lp199
g83
ag4
assa(dp200
g2
F53319.59616804123
sa.