(lp0
(dp1
S'scifi'
p2
(dp3
I7
(lp4
F0.7777777777777778
acnumpy.core.multiarray
scalar
p5
(cnumpy
dtype
p6
(S'f8'
p7
I0
I1
tp8
Rp9
(I3
S'<'
p10
NNNI-1
I-1
I0
tp11
bS'[3\xb4\x07[t\xea?'
p12
tp13
Rp14
assa(dp15
g2
(dp16
I7
(lp17
(lp18
(lp19
I56
aF0.8626903632435095
aF0.7873971570789526
aaF0.5555555555555556
ag5
(g9
S'\xe4@\xdd\xb3 \xc0\xe8?'
p20
tp21
Rp22
aa(lp23
(lp24
I63
aF0.5458915783827468
aF0.5045419583098644
aaF0.5555555555555556
ag5
(g9
S'\xe2\xf3:\x03\xac\x87\xe8?'
p25
tp26
Rp27
aa(lp28
(lp29
I83
aF0.8098510160219619
aF0.1844736280968114
aaF0.5555555555555556
ag5
(g9
S"\x04':\x9b\xa1l\xe9?"
p30
tp31
Rp32
aa(lp33
(lp34
I51
aF0.8521885935278827
aF0.489490361114548
aaF0.5555555555555556
ag5
(g9
S'\xf4\xbdp\xc2\xc3r\xe9?'
p35
tp36
Rp37
aa(lp38
(lp39
I88
aF0.10189544801599963
aF0.5008484746493213
aaF0.6666666666666666
ag5
(g9
S'\xeci\xdd/I\x8f\xe8?'
p40
tp41
Rp42
aa(lp43
(lp44
I86
aF0.3058859991434074
aF0.95074362599853
aaF0.7777777777777778
ag5
(g9
S'\xa8\x18\xcb\x014\xe4\xe9?'
p45
tp46
Rp47
aa(lp48
(lp49
I95
aF0.1275309847301982
aF0.12290127489411473
aaF0.5555555555555556
ag5
(g9
S'\xcfV<\xfe\x1d\x02\xec?'
p50
tp51
Rp52
aa(lp53
(lp54
I77
aF0.9452342465006595
aF0.4430838139193912
aaF0.5555555555555556
ag5
(g9
S'\xc0n\x8f\xb5\x0c\x1d\xe8?'
p55
tp56
Rp57
aa(lp58
(lp59
I61
aF0.47990491802444557
aF0.12613670881738115
aaF0.5555555555555556
ag5
(g9
S'\xc5%C\xb0\x8e6\xeb?'
p60
tp61
Rp62
aa(lp63
(lp64
I61
aF0.4940988342855148
aF0.5462310172436656
aaF0.6666666666666666
ag5
(g9
S'\xde\xc2\xaf\xc6Dz\xe8?'
p65
tp66
Rp67
aa(lp68
g19
aF0.4444444444444444
ag5
(g9
S'\xf9\xef\x95)\x8d\xb2\xe4?'
p69
tp70
Rp71
aa(lp72
(lp73
I100
aF0.1
aF0.12031583633173455
aaF0.5555555555555556
ag5
(g9
S'\xe9\xcd\x0c\xd4C\x10\xec?'
p74
tp75
Rp76
aa(lp77
g29
aF0.5555555555555556
ag5
(g9
S'\xac\x8e\xb1:\xc6\xea\xe8?'
p78
tp79
Rp80
aa(lp81
(lp82
F79.6
aF0.1
aF0.1
aaF0.6666666666666666
ag5
(g9
S'va0\x96\x9fU\xec?'
p83
tp84
Rp85
aa(lp86
g39
aF0.5555555555555556
ag5
(g9
S'\x9b\x9e\x95\xa7\x83\xcb\xeb?'
p87
tp88
Rp89
aa(lp90
(lp91
I50
aF0.48811086010274185
aF0.7455612985215574
aaF0.4444444444444444
ag5
(g9
S'8"\x0f\xc22\x96\xe3?'
p92
tp93
Rp94
aa(lp95
g49
aF0.5555555555555556
ag5
(g9
S'3\xe2\xfd\xa7\x89\xf1\xeb?'
p96
tp97
Rp98
aa(lp99
g54
aF0.5555555555555556
ag5
(g9
S'\x86\xac\xa6\xd9\xf8\xe8\xe7?'
p100
tp101
Rp102
aa(lp103
g59
aF0.5555555555555556
ag5
(g9
S'\xe6}\x8aK\x86`\xeb?'
p104
tp105
Rp106
aa(lp107
g64
aF0.5555555555555556
ag5
(g9
S'?\x06\xb5\x83\xd3\x15\xea?'
p108
tp109
Rp110
aa(lp111
g19
aF0.5555555555555556
ag5
(g9
S'(f\xb6c\xd6H\xe6?'
p112
tp113
Rp114
aa(lp115
(lp116
I50
aI1
aF0.7721686015550253
aaF0.5555555555555556
ag5
(g9
S'U\xfe\xf5\xc3\x97\x8e\xe7?'
p117
tp118
Rp119
aa(lp120
g29
aF0.5555555555555556
ag5
(g9
S'\xe56i\xd5JG\xe9?'
p121
tp122
Rp123
aa(lp124
g82
aF0.5555555555555556
ag5
(g9
S'@uG\xa9\xcc\xe9\xeb?'
p125
tp126
Rp127
aa(lp128
(lp129
F87.78
aF0.9645059358117982
aF0.4591147063452715
aaF0.5555555555555556
ag5
(g9
S'\x19\x96\x82\xad\xe8\xcc\xe6?'
p130
tp131
Rp132
aa(lp133
(lp134
I100
aF0.1
aF0.4695656160432632
aaF0.5555555555555556
ag5
(g9
S'\x01O\x0e\xbe\xcb\x97\xe8?'
p135
tp136
Rp137
aa(lp138
g49
aF0.5555555555555556
ag5
(g9
S'\x91b\x9a\x1ai\xcd\xeb?'
p139
tp140
Rp141
aa(lp142
(lp143
F88.9
aF0.44833853528528617
aF0.39817335968383744
aaF0.5555555555555556
ag5
(g9
S'\xd8w\xbf"w\x98\xe9?'
p144
tp145
Rp146
aa(lp147
(lp148
F81.7
aF0.22674395810524609
aI1
aaF0.7777777777777778
ag14
aa(lp149
(lp150
F60.2
aF0.7679221019084211
aF0.6063700270031468
aaF0.4444444444444444
ag5
(g9
S'k\xb6\xf8^ls\xe5?'
p151
tp152
Rp153
aa(lp154
g19
aF0.5555555555555556
ag5
(g9
S'\x00/@\xc5oI\xe4?'
p155
tp156
Rp157
aa(lp158
g73
aF0.5555555555555556
ag5
(g9
S'A\x98\xea\xf3\x11\xc8\xeb?'
p159
tp160
Rp161
aa(lp162
g29
aF0.5555555555555556
ag5
(g9
S'>[\x85\x9b\xcfV\xe9?'
p163
tp164
Rp165
aa(lp166
(lp167
F78.19999999999999
aF0.24279338578918544
aF0.4149266059444461
aaF0.5555555555555556
ag5
(g9
S'W\xa7\xa6\xaeq\x16\xeb?'
p168
tp169
Rp170
aa(lp171
g39
aF0.5555555555555556
ag5
(g9
S'\xf3p\x00\x0f\xfe\xbd\xeb?'
p172
tp173
Rp174
aa(lp175
g44
aF0.8888888888888888
ag5
(g9
S'Vk\xf0\xb7\x92f\xda?'
p176
tp177
Rp178
aa(lp179
g49
aF0.6666666666666666
ag5
(g9
S'\n\x89\xb5\x14\x1d\xa6\xeb?'
p180
tp181
Rp182
aa(lp183
g143
aF0.5555555555555556
ag5
(g9
S'\xc9\x1df\xf0\xa5\xa6\xe9?'
p184
tp185
Rp186
aa(lp187
(lp188
F93.49
aF0.1
aF0.1
aaF0.5555555555555556
ag5
(g9
S'\xa0\xed\xde*M\xf1\xeb?'
p189
tp190
Rp191
aa(lp192
g64
aF0.5555555555555556
ag5
(g9
S'\xa8\xe2cJ\xa7\x15\xea?'
p193
tp194
Rp195
aassa(dp196
g2
(dp197
I7
(lp198
g148
ag4
assa(dp199
g2
F81068.00293397903
sa.