(lp0
(dp1
S'photo'
p2
(dp3
I7
(lp4
F0.7777777777777778
acnumpy.core.multiarray
scalar
p5
(cnumpy
dtype
p6
(S'f8'
p7
I0
I1
tp8
Rp9
(I3
S'<'
p10
NNNI-1
I-1
I0
tp11
bS'\x00\x00\x00\x00\x008\xe3?'
p12
tp13
Rp14
assa(dp15
g2
(dp16
I7
(lp17
(lp18
(lp19
I56
aF0.8626903632435095
aF0.7873971570789526
aaF0.4444444444444444
ag5
(g9
S'\r=\xa4\xd4\xce1\xd4?'
p20
tp21
Rp22
aa(lp23
(lp24
I63
aF0.5458915783827468
aF0.5045419583098644
aaF0.5555555555555556
ag5
(g9
S'X\xfaJ:\xaf\xc6\xd6?'
p25
tp26
Rp27
aa(lp28
(lp29
I83
aF0.8098510160219619
aF0.1844736280968114
aaF0.5555555555555556
ag5
(g9
S'\x87g\xc11\xbe-\xd9?'
p30
tp31
Rp32
aa(lp33
(lp34
I51
aF0.8521885935278827
aF0.489490361114548
aaF0.5555555555555556
ag5
(g9
S'x\xbbf\xea{\x89\xd7?'
p35
tp36
Rp37
aa(lp38
(lp39
I88
aF0.10189544801599963
aF0.5008484746493213
aaF0.6666666666666666
ag5
(g9
S'\xdbm2\x7f\x04\x1a\xdb?'
p40
tp41
Rp42
aa(lp43
(lp44
I86
aF0.3058859991434074
aF0.95074362599853
aaF0.6666666666666666
ag5
(g9
S'\x98p\xc5x\xcd\xe9\xd7?'
p45
tp46
Rp47
aa(lp48
(lp49
I95
aF0.1275309847301982
aF0.12290127489411473
aaF0.6666666666666666
ag5
(g9
S'!\xc7\xf6\x81E\x0b\xda?'
p50
tp51
Rp52
aa(lp53
(lp54
I77
aF0.9452342465006595
aF0.4430838139193912
aaF0.4444444444444444
ag5
(g9
S'E=\x8e\x9cy\x16\xe2?'
p55
tp56
Rp57
aa(lp58
(lp59
I61
aF0.47990491802444557
aF0.12613670881738115
aaF0.4444444444444444
ag5
(g9
S'\xa5\x94RJ)\xa5\xe4?'
p60
tp61
Rp62
aa(lp63
(lp64
I61
aF0.4940988342855148
aF0.5462310172436656
aaF0.5555555555555556
ag5
(g9
S'U@0$[D\xe3?'
p65
tp66
Rp67
aa(lp68
g19
aF0.4444444444444444
ag5
(g9
S"\xeb\xfd\xcc~'\xc9\xd6?"
p69
tp70
Rp71
aa(lp72
g24
aF0.5555555555555556
ag5
(g9
S'.,q3]*\xd6?'
p73
tp74
Rp75
aa(lp76
g29
aF0.5555555555555556
ag5
(g9
S'm@6 \x1b\x90\xd9?'
p77
tp78
Rp79
aa(lp80
g34
aF0.5555555555555556
ag5
(g9
S'k\x9d\x1c\xf3gM\xd7?'
p81
tp82
Rp83
aa(lp84
g39
aF0.7777777777777778
ag5
(g9
S'0\xb2R^=d\xd7?'
p85
tp86
Rp87
aa(lp88
g44
aF0.7777777777777778
ag5
(g9
S'\x86\x8d\x0b\xec\xf3q\xd2?'
p89
tp90
Rp91
aa(lp92
g49
aF0.5555555555555556
ag5
(g9
S'|q\xd3@.\x1e\xda?'
p93
tp94
Rp95
aa(lp96
g54
aF0.5555555555555556
ag5
(g9
S'\xd9\x1erY1P\xe2?'
p97
tp98
Rp99
aa(lp100
(lp101
I100
aF0.1
aF0.7501595482977881
aaF0.6666666666666666
ag5
(g9
S'\xb9\xfd\xb6&\xd9m\xd4?'
p102
tp103
Rp104
aa(lp105
g64
aF0.6666666666666666
ag5
(g9
S'p\xe9\xd9f\xf1}\xe3?'
p106
tp107
Rp108
aa(lp109
g19
aF0.5555555555555556
ag5
(g9
S'&\xbd\xd7\xa4\xf7\x9a\xd4?'
p110
tp111
Rp112
aa(lp113
g24
aF0.6666666666666666
ag5
(g9
S'\x1b\xb6\x9b\xe5Id\xda?'
p114
tp115
Rp116
aa(lp117
g29
aF0.5555555555555556
ag5
(g9
S'2\xcf*j\x8c\x14\xd8?'
p118
tp119
Rp120
aa(lp121
g34
aF0.5555555555555556
ag5
(g9
S'O}Q\xee\xf2\xd4\xd7?'
p122
tp123
Rp124
aa(lp125
g39
aF0.6666666666666666
ag5
(g9
S'\xb8\x1e\x85\xebQ\xb8\xe2?'
p126
tp127
Rp128
aa(lp129
(lp130
F64.2
aF0.35849294270472126
aF0.7971792942940068
aaF0.6666666666666666
ag5
(g9
S'\x12\x0c`G\xce\xd2\xd6?'
p131
tp132
Rp133
aa(lp134
(lp135
F64.5
aF0.4872561568253843
aF0.33467146599246433
aaF0.5555555555555556
ag5
(g9
S'\x0f\xd1\xfa!Z?\xe4?'
p136
tp137
Rp138
aa(lp139
g54
aF0.5555555555555556
ag5
(g9
S'pP\xc8\xd7\x1b\x14\xe2?'
p140
tp141
Rp142
aa(lp143
g59
aF0.5555555555555556
ag5
(g9
S'\xc3rO#,\xf7\xd7?'
p144
tp145
Rp146
aa(lp147
g64
aF0.5555555555555556
ag5
(g9
S'\xf1\x82Ts\x8e\xb0\xe3?'
p148
tp149
Rp150
aa(lp151
g19
aF0.5555555555555556
ag5
(g9
S'\xaa[\xad\xe9|{\xd4?'
p152
tp153
Rp154
aa(lp155
g24
aF0.5555555555555556
ag5
(g9
S'(\xd1$\xcd\xb8\x02\xd7?'
p156
tp157
Rp158
aa(lp159
g29
aF0.4444444444444444
ag5
(g9
S'\x1b2\xf6\xda\xe5G\xda?'
p160
tp161
Rp162
aa(lp163
g34
aF0.4444444444444444
ag5
(g9
S'zR\x1f\x07x\xaf\xd8?'
p164
tp165
Rp166
aa(lp167
g39
aF0.6666666666666666
ag5
(g9
S'\xb5p\xc4\x15a\x1d\xe4?'
p168
tp169
Rp170
aa(lp171
(lp172
F65.45
aF0.5411017041606555
aF0.3564502724340235
aaF0.5555555555555556
ag5
(g9
S'T\xac\xb4\xe6\x12\x1c\xe3?'
p173
tp174
Rp175
aa(lp176
g135
aF0.5555555555555556
ag5
(g9
S'\xbb\xdf\x05K\xf5/\xd9?'
p177
tp178
Rp179
aa(lp180
g54
aF0.4444444444444444
ag5
(g9
S'\xaa\xc4\xa7\xf0\xdb\x04\xd5?'
p181
tp182
Rp183
aa(lp184
(lp185
I50
aF0.26828243284791053
aF0.6513695037706226
aaF0.7777777777777778
ag14
aa(lp186
g64
aF0.5555555555555556
ag5
(g9
S'\xa0\xde\xd5\xce\xc4\x02\xd7?'
p187
tp188
Rp189
aassa(dp190
g2
(dp191
I7
(lp192
g185
ag4
assa(dp193
g2
F49069.71087503433
sa.