(lp0
(dp1
S'SE0'
p2
(dp3
I7
F0.7777777777777778
ssa(dp4
g2
(dp5
I7
(dp6
F0.4444444444444444
(lp7
(lp8
I100
aF0.7908361176241581
aF0.10292099090649254
aa(lp9
I100
aF0.040284083203218
aF0.035191402383526194
aag8
a(lp10
I100
aF0.9071577364711665
aF0.1525293108876731
aa(lp11
I100
aF0.01
aF0.07967019114557237
aa(lp12
I100
aI1
aF0.09133126106609898
aag8
ag9
ag8
asF0.7777777777777778
(lp13
(lp14
I100
aF0.23647459905774812
aF0.9458179885983831
aag14
ag14
asF0.6666666666666666
(lp15
(lp16
I100
aF0.8489593995678604
aF0.7661368727868479
aa(lp17
I100
aF0.5004807362210215
aF0.45499615414085076
aa(lp18
I100
aF0.837407452880671
aF0.43843939722600284
aa(lp19
I100
aF0.012084992817599586
aF0.4509333221142534
aa(lp20
I100
aF0.44350871771406636
aF0.5008541189680321
aag17
ag16
a(lp21
I100
aF0.7853857380964617
aF0.5036981013866503
aag18
a(lp22
I100
aF0.9397576711507255
aF0.3873921953113303
aag20
a(lp23
I100
aF0.05545565471757946
aI1
aag19
ag20
asF0.3333333333333333
(lp24
(lp25
I100
aF0.42789540982689017
aF0.038750379699119264
aasF0.5555555555555556
(lp26
g22
ag16
ag18
a(lp27
I100
aF0.05196540577246819
aF0.41883274673522647
aag22
a(lp28
I100
aF0.1445291706718152
aF0.2343212454669126
aag19
ag28
ag16
a(lp29
I100
aI1
aF0.5267830854697008
aa(lp30
I100
aF0.01
aF0.3137445920266039
aag22
ag28
asssa(dp31
g2
F36138.00270700455
sa(dp32
a.