(lp0
(dp1
S'cs'
p2
(dp3
I7
F0.6666666666666666
ssa(dp4
g2
(dp5
I7
(dp6
F0.4444444444444444
(lp7
(lp8
I100
aF0.8489593995678604
aF0.7661368727868479
aa(lp9
I100
aF0.837407452880671
aF0.43843939722600284
aa(lp10
I100
aF0.012084992817599586
aF0.4509333221142534
aa(lp11
I100
aF0.040284083203218
aF0.035191402383526194
aa(lp12
I100
aF0.44350871771406636
aF0.5008541189680321
aag8
a(lp13
I100
aF0.5004807362210215
aF0.45499615414085076
aa(lp14
I100
aI1
aF0.73230272345613
aag10
ag13
ag14
a(lp15
I100
aI1
aF0.6166761871872708
aa(lp16
I100
aF0.01
aF0.9545637360201584
aa(lp17
I100
aF0.9397576711507255
aF0.3873921953113303
aa(lp18
I100
aF0.5949009041097728
aF0.7212174449416866
aag14
ag9
ag11
ag17
a(lp19
I100
aI1
aF0.7573911253650726
aasF0.3333333333333333
(lp20
(lp21
I100
aF0.7908361176241581
aF0.10292099090649254
aag17
a(lp22
I100
aF0.42789540982689017
aF0.038750379699119264
aa(lp23
I100
aF0.3160131978198412
aF0.01
aag8
ag10
asF0.6666666666666666
(lp24
(lp25
I100
aF0.23647459905774812
aF0.9458179885983831
aag25
a(lp26
I100
aF0.5586122561702106
aI1
aag25
a(lp27
I100
aF0.40866809252359243
aF0.5642161782940774
aasF0.5555555555555556
(lp28
g13
a(lp29
I100
aF0.21932788800460512
aF0.5195963177373851
aag11
ag17
ag18
ag12
ag12
ag8
a(lp30
I100
aF0.4856783479085585
aF0.7422914886693919
aasssa(dp31
g2
F71323.87485599518
sa(dp32
a.