(lp0
(dp1
S'photo'
p2
(dp3
I7
F0.8888888888888888
ssa(dp4
g2
(dp5
I7
(dp6
F0.7777777777777778
(lp7
(lp8
I100
aF0.7040355165084377
aI1
aa(lp9
I100
aF0.19958852473467226
aF0.8106156615488941
aa(lp10
I100
aF0.23647459905774812
aF0.9458179885983831
aag10
ag9
asF0.4444444444444444
(lp11
(lp12
I100
aF0.7908361176241581
aF0.10292099090649254
aa(lp13
I100
aF0.040284083203218
aF0.035191402383526194
aa(lp14
I100
aF0.42789540982689017
aF0.038750379699119264
aa(lp15
I100
aF0.8489593995678604
aF0.7661368727868479
aag12
a(lp16
I100
aF0.9397576711507255
aF0.3873921953113303
aag14
ag12
ag13
ag14
a(lp17
I100
aF0.9532818339215483
aF0.0861610916651957
aa(lp18
I100
aF0.19204670816513555
aF0.05034010953951281
aag13
asF0.5555555555555556
(lp19
g15
a(lp20
I100
aF0.5004807362210215
aF0.45499615414085076
aag16
ag20
ag13
ag15
ag20
a(lp21
I100
aF0.837407452880671
aF0.43843939722600284
aag15
ag21
a(lp22
I100
aF0.012084992817599586
aF0.4509333221142534
aag16
asF0.8888888888888888
(lp23
g10
a(lp24
I100
aF0.34510930241558685
aF0.8293374525269397
aasF0.6666666666666666
(lp25
g21
ag22
a(lp26
I100
aF0.44350871771406636
aF0.5008541189680321
aag22
ag22
asF0.3333333333333333
(lp27
(lp28
I100
aF0.4325325346974734
aF0.01
aa(lp29
I100
aF0.8417687248495302
aF0.01
aa(lp30
I100
aF0.1742786507416174
aF0.01
aasssa(dp31
g2
F79801.99903798103
sa(dp32
a.