(lp0
(dp1
S'diy'
p2
(dp3
I7
F0.8888888888888888
ssa(dp4
g2
(dp5
I7
(dp6
F0.8888888888888888
(lp7
(lp8
I100
aF0.23647459905774812
aF0.9458179885983831
aasF0.4444444444444444
(lp9
(lp10
I100
aF0.7908361176241581
aF0.10292099090649254
aa(lp11
I100
aF0.837407452880671
aF0.43843939722600284
aa(lp12
I100
aF0.040284083203218
aF0.035191402383526194
aa(lp13
I100
aF0.9397576711507255
aF0.3873921953113303
aa(lp14
I100
aF0.42789540982689017
aF0.038750379699119264
aa(lp15
I100
aF0.8489593995678604
aF0.7661368727868479
aa(lp16
I100
aF0.5004807362210215
aF0.45499615414085076
aag12
ag13
ag15
a(lp17
I100
aI1
aF0.39023617772994845
aa(lp18
I100
aF0.012084992817599586
aF0.4509333221142534
aag13
ag14
ag15
ag18
ag13
ag14
asF0.6666666666666666
(lp19
(lp20
I100
aF0.11242767322453462
aI1
aag8
a(lp21
I100
aF0.44350871771406636
aF0.5008541189680321
aag20
asF0.2222222222222222
(lp22
(lp23
I100
aF0.8566347701839687
aF0.01
aasF0.5555555555555556
(lp24
g15
ag16
ag18
ag21
a(lp25
I100
aF0.213822306083375
aF0.17521384187203226
aag20
ag18
a(lp26
I100
aF0.787139166358668
aF0.7347784664096693
aa(lp27
I100
aF0.01
aF0.9545637360201584
aag25
ag12
ag16
ag25
ag8
ag12
ag21
asssa(dp28
g2
F106446.15832185745
sa(dp29
a.