(lp0
(dp1
S'SE0'
p2
(dp3
I7
F0.3333333333333333
ssa(dp4
g2
(dp5
I7
(dp6
F0.3333333333333333
(lp7
(lp8
I100
aF0.1
aF0.01
aa(lp9
I100
aF0.1
aF0.01
aa(lp10
I100
aF0.1
aF0.01
aa(lp11
I100
aF0.1
aF0.01
aa(lp12
I100
aF0.1
aF0.01
aa(lp13
I100
aF0.1
aF0.01
aa(lp14
I100
aF0.1
aF0.01
aa(lp15
I100
aF0.1
aF0.01
aa(lp16
I100
aF0.1
aF0.01
aa(lp17
I100
aF0.1
aF0.01
aag8
ag9
ag10
ag11
a(lp18
I100
aF0.1
aF0.01
aa(lp19
I100
aF0.1
aF0.01
aa(lp20
I100
aF0.1
aF0.01
aag15
a(lp21
I100
aF0.1
aF0.01
aa(lp22
I100
aF0.1
aF0.01
aasssa(dp23
g2
F20955.898023843765
sa(dp24
a.