(lp0
(dp1
S'SE1'
p2
(dp3
I7
F0.6666666666666666
ssa(dp4
g2
(dp5
I7
(dp6
F0.6666666666666666
(lp7
(lp8
I100
aF0.1
aF0.01
aa(lp9
I100
aF0.1
aF0.01
aa(lp10
I100
aF0.1
aF0.01
aa(lp11
I100
aF0.1
aF0.01
aasF0.5555555555555556
(lp12
(lp13
I100
aF0.1
aF0.01
aa(lp14
I100
aF0.1
aF0.01
aa(lp15
I100
aF0.1
aF0.01
aa(lp16
I100
aF0.1
aF0.01
aa(lp17
I100
aF0.1
aF0.01
aa(lp18
I100
aF0.1
aF0.01
aag10
ag11
ag8
ag13
ag9
a(lp19
I100
aF0.1
aF0.01
aag15
ag16
ag17
a(lp20
I100
aF0.1
aF0.01
aasssa(dp21
g2
F148932.77862501144
sa(dp22
a.