(dp0
S'photo'
p1
(lp2
(dp3
I0
(lp4
(lp5
(lp6
I135
aF0.11249861124005991
aF0.23317810300681413
aa(lp7
F0.023111486970568286
acnumpy.core.multiarray
scalar
p8
(cnumpy
dtype
p9
(S'f8'
p10
I0
I1
tp11
Rp12
(I3
S'<'
p13
NNNI-1
I-1
I0
tp14
bS'\xd9"\x8b]\xab\xd2\xdc?'
p15
tp16
Rp17
aaaF2991.955897092819
ag8
(g12
S'+1\x7fu\xf7\x90\xdc?'
p18
tp19
Rp20
asI1
(lp21
(lp22
(lp23
I98
aF0.9447438915895904
aF0.2663329345052736
aa(lp24
F0.02108446623892768
ag8
(g12
S'O%\xce\xc6\xfe3\xde?'
p25
tp26
Rp27
aaaF2695.3910388946533
ag8
(g12
S'\xf6\xa4\xa3z4\x19\xda?'
p28
tp29
Rp30
asI2
(lp31
(lp32
(lp33
I75
aF0.2619616301778306
aF0.9909031953058552
aa(lp34
F0.022888670595504593
ag8
(g12
S'\x8f\xb3\x9c\xc0\xac9\xdc?'
p35
tp36
Rp37
aaaF2453.6466472148895
ag8
(g12
S'Y[\xde\xa2\xc9\x03\xdb?'
p38
tp39
Rp40
asI3
(lp41
(lp42
(lp43
I103
aF0.6262793881106326
aF0.011525767347016018
aa(lp44
F0.025990011867863993
ag8
(g12
S'y:\x81q\x91\x18\xde?'
p45
tp46
Rp47
aaaF2710.2226190567017
ag8
(g12
S'\xdb)\xad\x8bg\x91\xde?'
p48
tp49
Rp50
asI4
(lp51
(lp52
(lp53
I150
aF0.1
aI1
aa(lp54
F0.02317465763205413
ag8
(g12
S'4\x11\xdd\x08\r\xf5\xde?'
p55
tp56
Rp57
aaaF2696.7458300590515
ag8
(g12
S'\x03\xf4rW\x8c\xeb\xd6?'
p58
tp59
Rp60
asa(lp61
g20
ag30
ag40
ag50
ag60
aaF13548.627535104752
as.