(dp0
S'cs'
p1
(lp2
(dp3
I0
(lp4
(lp5
(lp6
I85
aF0.6213181437425073
aF0.11204022065250765
aa(lp7
F0.02743830441611178
acnumpy.core.multiarray
scalar
p8
(cnumpy
dtype
p9
(S'f8'
p10
I0
I1
tp11
Rp12
(I3
S'<'
p13
NNNI-1
I-1
I0
tp14
bS'4\xd6\x87\xc6\xfa\xd0\xe4?'
p15
tp16
Rp17
aaaF1972.7464208602905
ag8
(g12
S'\x94\x80E\x94\x80E\xe4?'
p18
tp19
Rp20
asI1
(lp21
(lp22
(lp23
I97
aF0.11688980495135161
aF0.11493013586500893
aa(lp24
F0.028548007209889304
ag8
(g12
S'\xd4\x9d5C\xddY\xe3?'
p25
tp26
Rp27
aaaF1984.3869450092316
ag8
(g12
S'_\x91\x10?\xb6\xb5\xe4?'
p28
tp29
Rp30
asI2
(lp31
(lp32
(lp33
I125
aF0.1565992619914991
aF0.3054524464705272
aa(lp34
F0.026512609785522924
ag8
(g12
S'c\x91A\xcd\x98\xf4\xe3?'
p35
tp36
Rp37
aaaF2199.186493873596
ag8
(g12
S'a\x0b\xb6`\x0b\xb6\xe0?'
p38
tp39
Rp40
asI3
(lp41
(lp42
(lp43
I79
aF0.24825343194944732
aF0.31910319489262545
aa(lp44
F0.02674044224596606
ag8
(g12
S'\x01\x00\x00\x00\x00@\xe5?'
p45
tp46
Rp47
aaaF2005.4950869083405
ag8
(g12
S')\xf13J\xfc\x8c\xe2?'
p48
tp49
Rp50
asI4
(lp51
(lp52
(lp53
I95
aF0.9503256041807061
aF0.7187083064204416
aa(lp54
F0.02236717637723132
ag8
(g12
S'\x0cdR\xbc@&\xe5?'
p55
tp56
Rp57
aaaF1939.8553550243378
ag8
(g12
S'\xb4\x12\xd0J@+\xe1?'
p58
tp59
Rp60
asa(lp61
g20
ag30
ag40
ag50
ag60
aaF10102.369038105011
as.