(dp0
S'scifi'
p1
(lp2
(dp3
I0
(lp4
(lp5
(lp6
I94
aF0.31389783172006575
aF0.08031773024457
aa(lp7
F0.014192150708346337
acnumpy.core.multiarray
scalar
p8
(cnumpy
dtype
p9
(S'f8'
p10
I0
I1
tp11
Rp12
(I3
S'<'
p13
NNNI-1
I-1
I0
tp14
bS'\x1cC\x02v\xe1F\xec?'
p15
tp16
Rp17
aaaF3902.6384019851685
ag8
(g12
S'\xc3\xb6C\x8c"l\xeb?'
p18
tp19
Rp20
asI1
(lp21
(lp22
(lp23
I98
aF0.21695911897940587
aF0.054309740241067765
aa(lp24
F0.014382445153108023
ag8
(g12
S'\x1d;$\xd4\xbb\xe6\xec?'
p25
tp26
Rp27
aaaF4220.930685997009
ag8
(g12
S'L\x1d\x8af\xe3\xe6\xeb?'
p28
tp29
Rp30
asI2
(lp31
(lp32
(lp33
I106
aF0.10871513271527461
aF0.14132781526270816
aa(lp34
F0.014104386534809275
ag8
(g12
S'\xfc\xbe\xef\xfb\xbe\xef\xeb?'
p35
tp36
Rp37
aaaF3647.5049929618835
ag8
(g12
S'\x87\xf2\x1a\xcak(\xeb?'
p38
tp39
Rp40
asI3
(lp41
(lp42
(lp43
I129
aF0.3227029510817835
aF0.1757650084975377
aa(lp44
F0.012968059469602772
ag8
(g12
S'333333\xeb?'
p45
tp46
Rp47
aaaF4342.0208559036255
ag8
(g12
S'l\xd4w6\xea;\xeb?'
p48
tp49
Rp50
asI4
(lp51
(lp52
(lp53
I149
aF0.178295485170633
aF0.10608177114497361
aa(lp54
F0.013490098628873121
ag8
(g12
S'\xca3rIi\x98\xeb?'
p55
tp56
Rp57
aaaF4359.777163028717
ag8
(g12
S'6n\xbe\x81\x1a\xc6\xec?'
p58
tp59
Rp60
asa(lp61
g20
ag30
ag40
ag50
ag60
aaF20474.478773117065
as.