(dp0
S'SE6'
p1
(lp2
(dp3
I0
(lp4
(lp5
(lp6
I83
aF0.11815813794912039
aF0.5325108469364452
aa(lp7
F0.01674229160169266
acnumpy.core.multiarray
scalar
p8
(cnumpy
dtype
p9
(S'f8'
p10
I0
I1
tp11
Rp12
(I3
S'<'
p13
NNNI-1
I-1
I0
tp14
bS'2\x85\xa2\x92\xb0\x95\xe9?'
p15
tp16
Rp17
aaaF3695.22896194458
ag8
(g12
S'6\x94\xd7P^C\xe9?'
p18
tp19
Rp20
asI1
(lp21
(lp22
(lp23
I103
aF0.13297012262292499
aF0.8540348501230959
aa(lp24
F0.01641061103791374
ag8
(g12
S'-\xb1\x1elk\xfa\xe7?'
p25
tp26
Rp27
aaaF4186.932622909546
ag8
(g12
S'^\xcb\xc1\xcd~!\xe6?'
p28
tp29
Rp30
asI2
(lp31
(lp32
(lp33
I95
aF0.18343769905644258
aF0.0796524557064503
aa(lp34
F0.016908578123725218
ag8
(g12
S'\x1ee\xfe}\xdd\x14\xea?'
p35
tp36
Rp37
aaaF4300.837275028229
ag8
(g12
S'^\x89\xda\x95\xa8]\xe9?'
p38
tp39
Rp40
asI3
(lp41
(lp42
(lp43
I104
aF0.6567406137097488
aF0.4678292601376392
aa(lp44
F0.01415901443802259
ag8
(g12
S'\x14\x90\xf0\x93\x0bQ\xe7?'
p45
tp46
Rp47
aaaF4126.1505308151245
ag8
(g12
S'\xc1\xdb\x0f\t\xbc\xfd\xe0?'
p48
tp49
Rp50
asI4
(lp51
(lp52
(lp53
I105
aF0.15128965811985629
aF0.05907595500072243
aa(lp54
F0.017127971212461603
ag8
(g12
S'\xa9\xf3k\x0f\xb9\xac\xe8?'
p55
tp56
Rp57
aaaF4387.267173051834
ag8
(g12
S'\xb2>4\xd6\x87\xc6\xea?'
p58
tp59
Rp60
asa(lp61
g20
ag30
ag40
ag50
ag60
aaF20697.134072065353
as.