(dp0
S'diy'
p1
(lp2
(dp3
I0
(lp4
(lp5
(lp6
F104.1
aF0.5566921264194947
aF0.3568568694204629
aa(lp7
F0.01565475273819549
acnumpy.core.multiarray
scalar
p8
(cnumpy
dtype
p9
(S'f8'
p10
I0
I1
tp11
Rp12
(I3
S'<'
p13
NNNI-1
I-1
I0
tp14
bS'\xdb\xe9\x91 \xde\x93\xe5?'
p15
tp16
Rp17
aaaF3049.9050290584564
ag8
(g12
S'\xc8\xb8 \xe3\x82\x8c\xe3?'
p18
tp19
Rp20
asI1
(lp21
(lp22
(lp23
I134
aF0.23246380413918005
aF0.01885789702333514
aa(lp24
F0.018889785518742267
ag8
(g12
S'l\xdaO\x96\xc0\xa6\xe5?'
p25
tp26
Rp27
aaaF3600.834750890732
ag8
(g12
S'0b\x1f\x8e\x19\xe5\xe3?'
p28
tp29
Rp30
asI2
(lp31
(lp32
(lp33
I92
aF0.40097491732217605
aF0.24935467552511606
aa(lp34
F0.016756510634846487
ag8
(g12
S'\x12\x96{\x1aa\xb9\xe5?'
p35
tp36
Rp37
aaaF3035.883682012558
ag8
(g12
S'\xfe\x8d\x1f\xce-\n\xe4?'
p38
tp39
Rp40
asI3
(lp41
(lp42
(lp43
I95
aF0.6657201137768471
aF0.22206808140160328
aa(lp44
F0.016425486508170283
ag8
(g12
S'HM0\xde\xca>\xe3?'
p45
tp46
Rp47
aaaF3134.780804872513
ag8
(g12
S']\xfb\x98G\xc5\x91\xe5?'
p48
tp49
Rp50
asI4
(lp51
(lp52
(lp53
I145
aF0.22501139476119217
aF0.0642220673004627
aa(lp54
F0.01794415921209529
ag8
(g12
S'.\xba\xe8\xa2\x8b.\xe6?'
p55
tp56
Rp57
aaaF3599.412810087204
ag8
(g12
S'1\xde\xca>\x87\xd4\xe4?'
p58
tp59
Rp60
asa(lp61
g20
ag30
ag40
ag50
ag60
aaF16421.536218881607
as.