(dp0
S'rpg'
p1
(lp2
(dp3
I0
(lp4
(lp5
(lp6
I75
aF0.5541901588294901
aF0.14524111983256258
aa(lp7
F0.0182370480825672
acnumpy.core.multiarray
scalar
p8
(cnumpy
dtype
p9
(S'f8'
p10
I0
I1
tp11
Rp12
(I3
S'<'
p13
NNNI-1
I-1
I0
tp14
bS'\x0f\xd9R\xacp\x98\xd8?'
p15
tp16
Rp17
aaaF2981.573642015457
ag8
(g12
S'E\xf5\xa0\x91w\xfe\xd6?'
p18
tp19
Rp20
asI1
(lp21
(lp22
(lp23
I86
aF0.10632203929365129
aF0.07897261618941563
aa(lp24
F0.019580067622783644
ag8
(g12
S'333333\xdb?'
p25
tp26
Rp27
aaaF3341.6531109809875
ag8
(g12
S'Q\xfa\x1f\xcc\xa3\xa6\xd6?'
p28
tp29
Rp30
asI2
(lp31
(lp32
(lp33
I118
aF0.6834560034479946
aF0.23699627004514245
aa(lp34
F0.016378501122067114
ag8
(g12
S'+cnD\xb3=\xd9?'
p35
tp36
Rp37
aaaF3217.0379269123077
ag8
(g12
S'\xe7\x0b\xfa\x82\xbe\xa0\xd5?'
p38
tp39
Rp40
asI3
(lp41
(lp42
(lp43
I72
aF0.5204681990885904
aF0.3449409882228137
aa(lp44
F0.017401293606229048
ag8
(g12
S'[JZ[JZ\xdb?'
p45
tp46
Rp47
aaaF3069.0149137973785
ag8
(g12
S'F\x94\xfd[X\xe2\xd6?'
p48
tp49
Rp50
asI4
(lp51
(lp52
(lp53
I116
aF0.28098542398013115
aF0.024328680454351895
aa(lp54
F0.019714253853360182
ag8
(g12
S'\xa67\xbd\xe9Mo\xda?'
p55
tp56
Rp57
aaaF3281.3434369564056
ag8
(g12
S'\xac\xbd\x029\x08\xab\xd8?'
p58
tp59
Rp60
asa(lp61
g20
ag30
ag40
ag50
ag60
aaF15891.068197011948
as.