(dp0
S'SE0'
p1
(lp2
(dp3
I0
(lp4
(lp5
(lp6
I75
aF0.2870935819735936
aF0.04040618049657823
aa(lp7
F0.04976084234337918
acnumpy.core.multiarray
scalar
p8
(cnumpy
dtype
p9
(S'f8'
p10
I0
I1
tp11
Rp12
(I3
S'<'
p13
NNNI-1
I-1
I0
tp14
bS'\xdd\xdd\xdd\xdd\xdd\xdd\xed?'
p15
tp16
Rp17
aaaF1175.7441899776459
ag8
(g12
S'\x00\x00\x00\x00\x00\x00\xee?'
p18
tp19
Rp20
asI1
(lp21
(lp22
(lp23
I70
aF0.1
aI1
aa(lp24
F0.04817090968931066
ag8
(g12
S'\x9e\xe7y\x9e\xe7y\xee?'
p25
tp26
Rp27
aaaF1309.1318399906158
ag8
(g12
S'\xb8\t\xf3\xbbZ\xdc\xec?'
p28
tp29
Rp30
asI2
(lp31
(lp32
(lp33
I80
aF0.5872264533595015
aF0.9358042121880467
aa(lp34
F0.040386544080552096
ag8
(g12
S'\xae\xb5\xd6Zk\xad\xed?'
p35
tp36
Rp37
aaaF1264.0944859981537
ag8
(g12
S'\xdb\x850\xdb\x850\xeb?'
p38
tp39
Rp40
asI3
(lp41
(lp42
(lp43
F94.4
aF0.1
aF0.3429766206147909
aa(lp44
F0.047260387444366184
ag8
(g12
S'Dz\xa0rv\x0b\xef?'
p45
tp46
Rp47
aaaF1317.9225652217865
ag8
(g12
S'|\xcb\xb7|\xcb\xb7\xec?'
p48
tp49
Rp50
asI4
(lp51
(lp52
(lp53
F105.44
aF0.1
aF0.01
aa(lp54
F0.05085545962742551
ag8
(g12
S'\xed%\xb4\x97\xd0^\xee?'
p55
tp56
Rp57
aaaF1274.898661851883
ag8
(g12
S'\xc1\xab\xc5M\x98\xdf\xed?'
p58
tp59
Rp60
asa(lp61
g20
ag30
ag40
ag50
ag60
aaF6342.011147022247
as.