(dp0
S'SE1'
p1
(lp2
(dp3
I0
(lp4
(lp5
(lp6
I90
aF0.19938501164789546
aF0.4822167799502225
aa(lp7
F0.005638762391865364
acnumpy.core.multiarray
scalar
p8
(cnumpy
dtype
p9
(S'f8'
p10
I0
I1
tp11
Rp12
(I3
S'<'
p13
NNNI-1
I-1
I0
tp14
bS'\x9e\xdf\x9f\x8a\x83\xd6\xec?'
p15
tp16
Rp17
aaaF11567.587004899979
ag8
(g12
S'\r\x95_\x0f\x97\xe2\xeb?'
p18
tp19
Rp20
asI1
(lp21
(lp22
(lp23
I121
aF0.140731276744474
aF0.09497619780488248
aa(lp24
F0.0059548924402544464
ag8
(g12
S'\xc4\xa0\x01\x8c\x08\xdf\xec?'
p25
tp26
Rp27
aaaF12530.836812019348
ag8
(g12
S'O\x88\xb3\xf2\x13\xe2\xec?'
p28
tp29
Rp30
asI2
(lp31
(lp32
(lp33
I132
aF0.16400209326850285
aF0.653625946529504
aa(lp34
F0.005490271577725267
ag8
(g12
S'%\x96\xe4^A\xbb\xec?'
p35
tp36
Rp37
aaaF12696.132282018661
ag8
(g12
S"'\x1e4\xa5(\x94\xec?"
p38
tp39
Rp40
asI3
(lp41
(lp42
(lp43
F74.2
aF0.14533289868937954
aF0.01
aa(lp44
F0.006284383577663444
ag8
(g12
S'\xa7Tw\xb1V\x11\xed?'
p45
tp46
Rp47
aaaF13925.738764047623
ag8
(g12
S'\xdes\x9e\xc0\x7ff\xed?'
p48
tp49
Rp50
asI4
(lp51
(lp52
(lp53
F134.3
aF0.14303038766283846
aF0.457873591182994
aa(lp54
F0.005562750641867097
ag8
(g12
S'\xcf\xd0mg\xf3\x0c\xed?'
p55
tp56
Rp57
aaaF12797.671155929565
ag8
(g12
S'C\xcdI .\xd4\xec?'
p58
tp59
Rp60
asa(lp61
g20
ag30
ag40
ag50
ag60
aaF63519.19331288338
as.