(dp0
S'SE8'
p1
(lp2
(dp3
I0
(lp4
(lp5
(lp6
I91
aF0.8447891398687247
aF0.27252301123823575
aa(lp7
F0.005118171231284799
acnumpy.core.multiarray
scalar
p8
(cnumpy
dtype
p9
(S'f8'
p10
I0
I1
tp11
Rp12
(I3
S'<'
p13
NNNI-1
I-1
I0
tp14
bS'$,\xf74\xc2r\xd7?'
p15
tp16
Rp17
aaaF12990.728049993515
ag8
(g12
S'\xf7\xba\xd7\xbd\xeeu\xcf?'
p18
tp19
Rp20
asI1
(lp21
(lp22
(lp23
I97
aF0.7344268995685013
aF0.09453088486467787
aa(lp24
F0.005367918857400295
ag8
(g12
S's\x1c\xc7q\x1c\xc7\xd9?'
p25
tp26
Rp27
aaaF10542.634625911713
ag8
(g12
S'\xeb\xd9!pc\x19\xd4?'
p28
tp29
Rp30
asI2
(lp31
(lp32
(lp33
F116.0
aF0.1
aF0.4253458636077497
aa(lp34
F0.005219640191670179
ag8
(g12
S'jW\xa2v%j\xd7?'
p35
tp36
Rp37
aaaF11392.422042131424
ag8
(g12
S'\xff\xff\xff\xff\xff\x1f\xd7?'
p38
tp39
Rp40
asI3
(lp41
(lp42
(lp43
I94
aF0.16023243931684292
aF0.7904615439225354
aa(lp44
F0.005069694615183662
ag8
(g12
S'\xe1)\xa6\xfeek\xd3?'
p45
tp46
Rp47
aaaF9486.559100151062
ag8
(g12
S'\x99\x18\xa2\xc3\xfd\xd9\xc9?'
p48
tp49
Rp50
asI4
(lp51
(lp52
(lp53
I135
aF0.14293087150257688
aF0.4311937844924613
aa(lp54
F0.005043216283004894
ag8
(g12
S'B{\t\xed%\xb4\xd7?'
p55
tp56
Rp57
aaaF10742.668865203857
ag8
(g12
S'\x14Fu\x9a\x1cd\xce?'
p58
tp59
Rp60
asa(lp61
g20
ag30
ag40
ag50
ag60
aaF55156.58504104614
as.