(dp0
S'SE3'
p1
(lp2
(dp3
I0
(lp4
(lp5
(lp6
I70
aF0.13813847223688946
aF0.21701192217848606
aa(lp7
F0.0041335558760771775
acnumpy.core.multiarray
scalar
p8
(cnumpy
dtype
p9
(S'f8'
p10
I0
I1
tp11
Rp12
(I3
S'<'
p13
NNNI-1
I-1
I0
tp14
bS'\xd5\xb0#\xca\x8d\xdf\xe3?'
p15
tp16
Rp17
aaaF16807.646595954895
ag8
(g12
S'\xff\xff\xff\xff\xff_\xe3?'
p18
tp19
Rp20
asI1
(lp21
(lp22
(lp23
F121.1
aF0.1
aF0.09819315273321153
aa(lp24
F0.004166371086747754
ag8
(g12
S'\xfb\xe0\xd2\x8fE\xc2\xe4?'
p25
tp26
Rp27
aaaF17148.77043414116
ag8
(g12
S's<\xf3B\x06\xaa\xe2?'
p28
tp29
Rp30
asI2
(lp31
(lp32
(lp33
F76.2
aF0.21727295057097423
aF0.28747174327859326
aa(lp34
F0.00401535621637436
ag8
(g12
S'}\xcb\xb7|\xcb\xb7\xe4?'
p35
tp36
Rp37
aaaF16982.114508152008
ag8
(g12
S'\xf0\x82=m\xfc\xa9\xe2?'
p38
tp39
Rp40
asI3
(lp41
(lp42
(lp43
I150
aF0.3208575690701714
aF0.6950242286614807
aa(lp44
F0.0034863785904748323
ag8
(g12
S'v\xba\xf3\x1b2c\xe3?'
p45
tp46
Rp47
aaaF19238.308867931366
ag8
(g12
S'\xbeJ\xc6LN\xf4\xe1?'
p48
tp49
Rp50
asI4
(lp51
(lp52
(lp53
F119.4
aF0.5602813760669031
aF0.5609440912569552
aa(lp54
F0.0035639748413401383
ag8
(g12
S'\xa8|\xf7u\xe6a\xe3?'
p55
tp56
Rp57
aaaF18089.028545856476
ag8
(g12
S'\xa1\xee\xda\x9f\xee\xda\xdf?'
p58
tp59
Rp60
asa(lp61
g20
ag30
ag40
ag50
ag60
aaF88268.13963389397
as.